Archive member included because of file (symbol)

C:\Users\kylebs\Desktop\FreeRTOS-lwIP-takeDeux\FreeRTOS-lwIP\Webserver_uIPRTOS_SC_DF\EVAL_KIT\SF_Webserver_Demo\SoftConsole\Webserver_MSS_CM3_0\Webserver_MSS_CM3_0_hw_platform\Debug\libWebserver_MSS_CM3_0_hw_platform.a(plotter_platform.o)
                              ./application_tasks/controller_task.o (numStepsX)
C:\Users\kylebs\Desktop\FreeRTOS-lwIP-takeDeux\FreeRTOS-lwIP\Webserver_uIPRTOS_SC_DF\EVAL_KIT\SF_Webserver_Demo\SoftConsole\Webserver_MSS_CM3_0\Webserver_MSS_CM3_0_hw_platform\Debug\libWebserver_MSS_CM3_0_hw_platform.a(mss_uart.o)
                              ./main.o (g_mss_uart0)
C:\Users\kylebs\Desktop\FreeRTOS-lwIP-takeDeux\FreeRTOS-lwIP\Webserver_uIPRTOS_SC_DF\EVAL_KIT\SF_Webserver_Demo\SoftConsole\Webserver_MSS_CM3_0\Webserver_MSS_CM3_0_hw_platform\Debug\libWebserver_MSS_CM3_0_hw_platform.a(mss_spi.o)
                              ./BSP/spi_flash_driver/spi_flash.o (g_mss_spi0)
C:\Users\kylebs\Desktop\FreeRTOS-lwIP-takeDeux\FreeRTOS-lwIP\Webserver_uIPRTOS_SC_DF\EVAL_KIT\SF_Webserver_Demo\SoftConsole\Webserver_MSS_CM3_0\Webserver_MSS_CM3_0_hw_platform\Debug\libWebserver_MSS_CM3_0_hw_platform.a(mss_pdma.o)
                              ./BSP/spi_flash_driver/spi_flash.o (PDMA_init)
C:\Users\kylebs\Desktop\FreeRTOS-lwIP-takeDeux\FreeRTOS-lwIP\Webserver_uIPRTOS_SC_DF\EVAL_KIT\SF_Webserver_Demo\SoftConsole\Webserver_MSS_CM3_0\Webserver_MSS_CM3_0_hw_platform\Debug\libWebserver_MSS_CM3_0_hw_platform.a(mss_gpio.o)
                              ./main.o (MSS_GPIO_init)
C:\Users\kylebs\Desktop\FreeRTOS-lwIP-takeDeux\FreeRTOS-lwIP\Webserver_uIPRTOS_SC_DF\EVAL_KIT\SF_Webserver_Demo\SoftConsole\Webserver_MSS_CM3_0\Webserver_MSS_CM3_0_hw_platform\Debug\libWebserver_MSS_CM3_0_hw_platform.a(mss_ethernet_mac.o)
                              ./application_tasks/http_task.o (MSS_MAC_init)
C:\Users\kylebs\Desktop\FreeRTOS-lwIP-takeDeux\FreeRTOS-lwIP\Webserver_uIPRTOS_SC_DF\EVAL_KIT\SF_Webserver_Demo\SoftConsole\Webserver_MSS_CM3_0\Webserver_MSS_CM3_0_hw_platform\Debug\libWebserver_MSS_CM3_0_hw_platform.a(phy.o)
                              C:\Users\kylebs\Desktop\FreeRTOS-lwIP-takeDeux\FreeRTOS-lwIP\Webserver_uIPRTOS_SC_DF\EVAL_KIT\SF_Webserver_Demo\SoftConsole\Webserver_MSS_CM3_0\Webserver_MSS_CM3_0_hw_platform\Debug\libWebserver_MSS_CM3_0_hw_platform.a(mss_ethernet_mac.o) (PHY_probe)
C:\Users\kylebs\Desktop\FreeRTOS-lwIP-takeDeux\FreeRTOS-lwIP\Webserver_uIPRTOS_SC_DF\EVAL_KIT\SF_Webserver_Demo\SoftConsole\Webserver_MSS_CM3_0\Webserver_MSS_CM3_0_hw_platform\Debug\libWebserver_MSS_CM3_0_hw_platform.a(core_uart_apb.o)
                              ./application_tasks/controller_task.o (UART_init)
C:\Users\kylebs\Desktop\FreeRTOS-lwIP-takeDeux\FreeRTOS-lwIP\Webserver_uIPRTOS_SC_DF\EVAL_KIT\SF_Webserver_Demo\SoftConsole\Webserver_MSS_CM3_0\Webserver_MSS_CM3_0_hw_platform\Debug\libWebserver_MSS_CM3_0_hw_platform.a(core_cm3.o)
                              ./BSP/i2c_driver/i2c.o (__get_PRIMASK)
C:\Users\kylebs\Desktop\FreeRTOS-lwIP-takeDeux\FreeRTOS-lwIP\Webserver_uIPRTOS_SC_DF\EVAL_KIT\SF_Webserver_Demo\SoftConsole\Webserver_MSS_CM3_0\Webserver_MSS_CM3_0_hw_platform\Debug\libWebserver_MSS_CM3_0_hw_platform.a(system_a2fxxxm3.o)
                              ./FreeRTOS/portable/GCC/ARM_CM3/port.o (SystemFrequency)
C:\Users\kylebs\Desktop\FreeRTOS-lwIP-takeDeux\FreeRTOS-lwIP\Webserver_uIPRTOS_SC_DF\EVAL_KIT\SF_Webserver_Demo\SoftConsole\Webserver_MSS_CM3_0\Webserver_MSS_CM3_0_hw_platform\Debug\libWebserver_MSS_CM3_0_hw_platform.a(hal_assert.o)
                              C:\Users\kylebs\Desktop\FreeRTOS-lwIP-takeDeux\FreeRTOS-lwIP\Webserver_uIPRTOS_SC_DF\EVAL_KIT\SF_Webserver_Demo\SoftConsole\Webserver_MSS_CM3_0\Webserver_MSS_CM3_0_hw_platform\Debug\libWebserver_MSS_CM3_0_hw_platform.a(core_uart_apb.o) (HAL_assert_fail)
C:\Users\kylebs\Desktop\FreeRTOS-lwIP-takeDeux\FreeRTOS-lwIP\Webserver_uIPRTOS_SC_DF\EVAL_KIT\SF_Webserver_Demo\SoftConsole\Webserver_MSS_CM3_0\Webserver_MSS_CM3_0_hw_platform\Debug\libWebserver_MSS_CM3_0_hw_platform.a(hw_reg_access.o)
                              C:\Users\kylebs\Desktop\FreeRTOS-lwIP-takeDeux\FreeRTOS-lwIP\Webserver_uIPRTOS_SC_DF\EVAL_KIT\SF_Webserver_Demo\SoftConsole\Webserver_MSS_CM3_0\Webserver_MSS_CM3_0_hw_platform\Debug\libWebserver_MSS_CM3_0_hw_platform.a(core_uart_apb.o) (HW_set_8bit_reg)
C:\Users\kylebs\Desktop\FreeRTOS-lwIP-takeDeux\FreeRTOS-lwIP\Webserver_uIPRTOS_SC_DF\EVAL_KIT\SF_Webserver_Demo\SoftConsole\Webserver_MSS_CM3_0\Webserver_MSS_CM3_0_hw_platform\Debug\libWebserver_MSS_CM3_0_hw_platform.a(crc32.o)
                              C:\Users\kylebs\Desktop\FreeRTOS-lwIP-takeDeux\FreeRTOS-lwIP\Webserver_uIPRTOS_SC_DF\EVAL_KIT\SF_Webserver_Demo\SoftConsole\Webserver_MSS_CM3_0\Webserver_MSS_CM3_0_hw_platform\Debug\libWebserver_MSS_CM3_0_hw_platform.a(mss_ethernet_mac.o) (mss_ethernet_crc)
c:/actel/libero_v9.1/softconsole/sourcery-g++/bin/../lib/gcc/arm-none-eabi/4.4.1/thumb2\libgcc.a(_arm_addsubsf3.o)
                              C:\Users\kylebs\Desktop\FreeRTOS-lwIP-takeDeux\FreeRTOS-lwIP\Webserver_uIPRTOS_SC_DF\EVAL_KIT\SF_Webserver_Demo\SoftConsole\Webserver_MSS_CM3_0\Webserver_MSS_CM3_0_hw_platform\Debug\libWebserver_MSS_CM3_0_hw_platform.a(plotter_platform.o) (__aeabi_i2f)
c:/actel/libero_v9.1/softconsole/sourcery-g++/bin/../lib/gcc/arm-none-eabi/4.4.1/thumb2\libgcc.a(_arm_muldivsf3.o)
                              C:\Users\kylebs\Desktop\FreeRTOS-lwIP-takeDeux\FreeRTOS-lwIP\Webserver_uIPRTOS_SC_DF\EVAL_KIT\SF_Webserver_Demo\SoftConsole\Webserver_MSS_CM3_0\Webserver_MSS_CM3_0_hw_platform\Debug\libWebserver_MSS_CM3_0_hw_platform.a(plotter_platform.o) (__aeabi_fmul)
c:/actel/libero_v9.1/softconsole/sourcery-g++/bin/../lib/gcc/arm-none-eabi/4.4.1/thumb2\libgcc.a(_arm_fixunssfsi.o)
                              C:\Users\kylebs\Desktop\FreeRTOS-lwIP-takeDeux\FreeRTOS-lwIP\Webserver_uIPRTOS_SC_DF\EVAL_KIT\SF_Webserver_Demo\SoftConsole\Webserver_MSS_CM3_0\Webserver_MSS_CM3_0_hw_platform\Debug\libWebserver_MSS_CM3_0_hw_platform.a(plotter_platform.o) (__aeabi_f2uiz)
c:/actel/libero_v9.1/softconsole/sourcery-g++/bin/../lib/gcc/arm-none-eabi/4.4.1/../../../../arm-none-eabi/lib/thumb2\libc.a(lib_a-errno.o)
                              C:/Users/kylebs/Desktop/FreeRTOS-lwIP-takeDeux/FreeRTOS-lwIP/Webserver_uIPRTOS_SC_DF/EVAL_KIT/SF_Webserver_Demo/SoftConsole/Webserver_MSS_CM3_0/Webserver_MSS_CM3_0_hw_platform/Debug/CMSIS/startup_gcc/newlib_stubs.o (__errno)
c:/actel/libero_v9.1/softconsole/sourcery-g++/bin/../lib/gcc/arm-none-eabi/4.4.1/../../../../arm-none-eabi/lib/thumb2\libc.a(lib_a-impure.o)
                              c:/actel/libero_v9.1/softconsole/sourcery-g++/bin/../lib/gcc/arm-none-eabi/4.4.1/../../../../arm-none-eabi/lib/thumb2\libc.a(lib_a-errno.o) (_impure_ptr)
c:/actel/libero_v9.1/softconsole/sourcery-g++/bin/../lib/gcc/arm-none-eabi/4.4.1/../../../../arm-none-eabi/lib/thumb2\libc.a(lib_a-init.o)
                              C:/Users/kylebs/Desktop/FreeRTOS-lwIP-takeDeux/FreeRTOS-lwIP/Webserver_uIPRTOS_SC_DF/EVAL_KIT/SF_Webserver_Demo/SoftConsole/Webserver_MSS_CM3_0/Webserver_MSS_CM3_0_hw_platform/Debug/CMSIS/startup_gcc/startup_a2fxxxm3.o (__libc_init_array)
c:/actel/libero_v9.1/softconsole/sourcery-g++/bin/../lib/gcc/arm-none-eabi/4.4.1/../../../../arm-none-eabi/lib/thumb2\libc.a(lib_a-malloc.o)
                              ./FreeRTOS/portable/MemMang/heap_3.o (free)
c:/actel/libero_v9.1/softconsole/sourcery-g++/bin/../lib/gcc/arm-none-eabi/4.4.1/../../../../arm-none-eabi/lib/thumb2\libc.a(lib_a-mallocr.o)
                              c:/actel/libero_v9.1/softconsole/sourcery-g++/bin/../lib/gcc/arm-none-eabi/4.4.1/../../../../arm-none-eabi/lib/thumb2\libc.a(lib_a-malloc.o) (_malloc_r)
c:/actel/libero_v9.1/softconsole/sourcery-g++/bin/../lib/gcc/arm-none-eabi/4.4.1/../../../../arm-none-eabi/lib/thumb2\libc.a(lib_a-memcmp.o)
                              ./mac/tcpip.o (memcmp)
c:/actel/libero_v9.1/softconsole/sourcery-g++/bin/../lib/gcc/arm-none-eabi/4.4.1/../../../../arm-none-eabi/lib/thumb2\libc.a(lib_a-memcpy.o)
                              ./uip/psock.o (memcpy)
c:/actel/libero_v9.1/softconsole/sourcery-g++/bin/../lib/gcc/arm-none-eabi/4.4.1/../../../../arm-none-eabi/lib/thumb2\libc.a(lib_a-memset.o)
                              ./uip/uip.o (memset)
c:/actel/libero_v9.1/softconsole/sourcery-g++/bin/../lib/gcc/arm-none-eabi/4.4.1/../../../../arm-none-eabi/lib/thumb2\libc.a(lib_a-mlock.o)
                              c:/actel/libero_v9.1/softconsole/sourcery-g++/bin/../lib/gcc/arm-none-eabi/4.4.1/../../../../arm-none-eabi/lib/thumb2\libc.a(lib_a-mallocr.o) (__malloc_lock)
c:/actel/libero_v9.1/softconsole/sourcery-g++/bin/../lib/gcc/arm-none-eabi/4.4.1/../../../../arm-none-eabi/lib/thumb2\libc.a(lib_a-printf.o)
                              ./main.o (printf)
c:/actel/libero_v9.1/softconsole/sourcery-g++/bin/../lib/gcc/arm-none-eabi/4.4.1/../../../../arm-none-eabi/lib/thumb2\libc.a(lib_a-putchar.o)
                              ./application_tasks/http_task.o (putchar)
c:/actel/libero_v9.1/softconsole/sourcery-g++/bin/../lib/gcc/arm-none-eabi/4.4.1/../../../../arm-none-eabi/lib/thumb2\libc.a(lib_a-puts.o)
                              ./main.o (puts)
c:/actel/libero_v9.1/softconsole/sourcery-g++/bin/../lib/gcc/arm-none-eabi/4.4.1/../../../../arm-none-eabi/lib/thumb2\libc.a(lib_a-sbrkr.o)
                              c:/actel/libero_v9.1/softconsole/sourcery-g++/bin/../lib/gcc/arm-none-eabi/4.4.1/../../../../arm-none-eabi/lib/thumb2\libc.a(lib_a-mallocr.o) (_sbrk_r)
c:/actel/libero_v9.1/softconsole/sourcery-g++/bin/../lib/gcc/arm-none-eabi/4.4.1/../../../../arm-none-eabi/lib/thumb2\libc.a(lib_a-sprintf.o)
                              ./FreeRTOS/tasks.o (sprintf)
c:/actel/libero_v9.1/softconsole/sourcery-g++/bin/../lib/gcc/arm-none-eabi/4.4.1/../../../../arm-none-eabi/lib/thumb2\libc.a(lib_a-sscanf.o)
                              ./application_tasks/http_task.o (sscanf)
c:/actel/libero_v9.1/softconsole/sourcery-g++/bin/../lib/gcc/arm-none-eabi/4.4.1/../../../../arm-none-eabi/lib/thumb2\libc.a(lib_a-strcat.o)
                              ./FreeRTOS/tasks.o (strcat)
c:/actel/libero_v9.1/softconsole/sourcery-g++/bin/../lib/gcc/arm-none-eabi/4.4.1/../../../../arm-none-eabi/lib/thumb2\libc.a(lib_a-strchr.o)
                              ./webclient/webclient.o (strchr)
c:/actel/libero_v9.1/softconsole/sourcery-g++/bin/../lib/gcc/arm-none-eabi/4.4.1/../../../../arm-none-eabi/lib/thumb2\libc.a(lib_a-strcmp.o)
                              ./resolv/resolv.o (strcmp)
c:/actel/libero_v9.1/softconsole/sourcery-g++/bin/../lib/gcc/arm-none-eabi/4.4.1/../../../../arm-none-eabi/lib/thumb2\libc.a(lib_a-strcpy.o)
                              ./resolv/resolv.o (strcpy)
c:/actel/libero_v9.1/softconsole/sourcery-g++/bin/../lib/gcc/arm-none-eabi/4.4.1/../../../../arm-none-eabi/lib/thumb2\libc.a(lib_a-strlen.o)
                              ./webclient/webclient.o (strlen)
c:/actel/libero_v9.1/softconsole/sourcery-g++/bin/../lib/gcc/arm-none-eabi/4.4.1/../../../../arm-none-eabi/lib/thumb2\libc.a(lib_a-strncmp.o)
                              ./webclient/webclient.o (strncmp)
c:/actel/libero_v9.1/softconsole/sourcery-g++/bin/../lib/gcc/arm-none-eabi/4.4.1/../../../../arm-none-eabi/lib/thumb2\libc.a(lib_a-strncpy.o)
                              ./webclient/webclient.o (strncpy)
c:/actel/libero_v9.1/softconsole/sourcery-g++/bin/../lib/gcc/arm-none-eabi/4.4.1/../../../../arm-none-eabi/lib/thumb2\libc.a(lib_a-svfprintf.o)
                              c:/actel/libero_v9.1/softconsole/sourcery-g++/bin/../lib/gcc/arm-none-eabi/4.4.1/../../../../arm-none-eabi/lib/thumb2\libc.a(lib_a-sprintf.o) (_svfprintf_r)
c:/actel/libero_v9.1/softconsole/sourcery-g++/bin/../lib/gcc/arm-none-eabi/4.4.1/../../../../arm-none-eabi/lib/thumb2\libc.a(lib_a-svfscanf.o)
                              c:/actel/libero_v9.1/softconsole/sourcery-g++/bin/../lib/gcc/arm-none-eabi/4.4.1/../../../../arm-none-eabi/lib/thumb2\libc.a(lib_a-sscanf.o) (__ssvfscanf_r)
c:/actel/libero_v9.1/softconsole/sourcery-g++/bin/../lib/gcc/arm-none-eabi/4.4.1/../../../../arm-none-eabi/lib/thumb2\libc.a(lib_a-ungetc.o)
                              c:/actel/libero_v9.1/softconsole/sourcery-g++/bin/../lib/gcc/arm-none-eabi/4.4.1/../../../../arm-none-eabi/lib/thumb2\libc.a(lib_a-svfscanf.o) (__submore)
c:/actel/libero_v9.1/softconsole/sourcery-g++/bin/../lib/gcc/arm-none-eabi/4.4.1/../../../../arm-none-eabi/lib/thumb2\libc.a(lib_a-vfprintf.o)
                              c:/actel/libero_v9.1/softconsole/sourcery-g++/bin/../lib/gcc/arm-none-eabi/4.4.1/../../../../arm-none-eabi/lib/thumb2\libc.a(lib_a-printf.o) (_vfprintf_r)
c:/actel/libero_v9.1/softconsole/sourcery-g++/bin/../lib/gcc/arm-none-eabi/4.4.1/../../../../arm-none-eabi/lib/thumb2\libc.a(lib_a-wsetup.o)
                              c:/actel/libero_v9.1/softconsole/sourcery-g++/bin/../lib/gcc/arm-none-eabi/4.4.1/../../../../arm-none-eabi/lib/thumb2\libc.a(lib_a-vfprintf.o) (__swsetup_r)
c:/actel/libero_v9.1/softconsole/sourcery-g++/bin/../lib/gcc/arm-none-eabi/4.4.1/../../../../arm-none-eabi/lib/thumb2\libc.a(lib_a-ctype_.o)
                              c:/actel/libero_v9.1/softconsole/sourcery-g++/bin/../lib/gcc/arm-none-eabi/4.4.1/../../../../arm-none-eabi/lib/thumb2\libc.a(lib_a-svfscanf.o) (__ctype_ptr__)
c:/actel/libero_v9.1/softconsole/sourcery-g++/bin/../lib/gcc/arm-none-eabi/4.4.1/../../../../arm-none-eabi/lib/thumb2\libc.a(lib_a-dtoa.o)
                              c:/actel/libero_v9.1/softconsole/sourcery-g++/bin/../lib/gcc/arm-none-eabi/4.4.1/../../../../arm-none-eabi/lib/thumb2\libc.a(lib_a-svfprintf.o) (_dtoa_r)
c:/actel/libero_v9.1/softconsole/sourcery-g++/bin/../lib/gcc/arm-none-eabi/4.4.1/../../../../arm-none-eabi/lib/thumb2\libc.a(lib_a-fflush.o)
                              c:/actel/libero_v9.1/softconsole/sourcery-g++/bin/../lib/gcc/arm-none-eabi/4.4.1/../../../../arm-none-eabi/lib/thumb2\libc.a(lib_a-ungetc.o) (_fflush_r)
c:/actel/libero_v9.1/softconsole/sourcery-g++/bin/../lib/gcc/arm-none-eabi/4.4.1/../../../../arm-none-eabi/lib/thumb2\libc.a(lib_a-findfp.o)
                              c:/actel/libero_v9.1/softconsole/sourcery-g++/bin/../lib/gcc/arm-none-eabi/4.4.1/../../../../arm-none-eabi/lib/thumb2\libc.a(lib_a-svfscanf.o) (__sfp_lock_acquire)
c:/actel/libero_v9.1/softconsole/sourcery-g++/bin/../lib/gcc/arm-none-eabi/4.4.1/../../../../arm-none-eabi/lib/thumb2\libc.a(lib_a-freer.o)
                              c:/actel/libero_v9.1/softconsole/sourcery-g++/bin/../lib/gcc/arm-none-eabi/4.4.1/../../../../arm-none-eabi/lib/thumb2\libc.a(lib_a-malloc.o) (_free_r)
c:/actel/libero_v9.1/softconsole/sourcery-g++/bin/../lib/gcc/arm-none-eabi/4.4.1/../../../../arm-none-eabi/lib/thumb2\libc.a(lib_a-fvwrite.o)
                              c:/actel/libero_v9.1/softconsole/sourcery-g++/bin/../lib/gcc/arm-none-eabi/4.4.1/../../../../arm-none-eabi/lib/thumb2\libc.a(lib_a-puts.o) (__sfvwrite_r)
c:/actel/libero_v9.1/softconsole/sourcery-g++/bin/../lib/gcc/arm-none-eabi/4.4.1/../../../../arm-none-eabi/lib/thumb2\libc.a(lib_a-fwalk.o)
                              c:/actel/libero_v9.1/softconsole/sourcery-g++/bin/../lib/gcc/arm-none-eabi/4.4.1/../../../../arm-none-eabi/lib/thumb2\libc.a(lib_a-fflush.o) (_fwalk_reent)
c:/actel/libero_v9.1/softconsole/sourcery-g++/bin/../lib/gcc/arm-none-eabi/4.4.1/../../../../arm-none-eabi/lib/thumb2\libc.a(lib_a-iswspace.o)
                              c:/actel/libero_v9.1/softconsole/sourcery-g++/bin/../lib/gcc/arm-none-eabi/4.4.1/../../../../arm-none-eabi/lib/thumb2\libc.a(lib_a-svfscanf.o) (iswspace)
c:/actel/libero_v9.1/softconsole/sourcery-g++/bin/../lib/gcc/arm-none-eabi/4.4.1/../../../../arm-none-eabi/lib/thumb2\libc.a(lib_a-locale.o)
                              c:/actel/libero_v9.1/softconsole/sourcery-g++/bin/../lib/gcc/arm-none-eabi/4.4.1/../../../../arm-none-eabi/lib/thumb2\libc.a(lib_a-svfprintf.o) (_localeconv_r)
c:/actel/libero_v9.1/softconsole/sourcery-g++/bin/../lib/gcc/arm-none-eabi/4.4.1/../../../../arm-none-eabi/lib/thumb2\libc.a(lib_a-makebuf.o)
                              c:/actel/libero_v9.1/softconsole/sourcery-g++/bin/../lib/gcc/arm-none-eabi/4.4.1/../../../../arm-none-eabi/lib/thumb2\libc.a(lib_a-wsetup.o) (__smakebuf_r)
c:/actel/libero_v9.1/softconsole/sourcery-g++/bin/../lib/gcc/arm-none-eabi/4.4.1/../../../../arm-none-eabi/lib/thumb2\libc.a(lib_a-mbrtowc.o)
                              c:/actel/libero_v9.1/softconsole/sourcery-g++/bin/../lib/gcc/arm-none-eabi/4.4.1/../../../../arm-none-eabi/lib/thumb2\libc.a(lib_a-svfscanf.o) (_mbrtowc_r)
c:/actel/libero_v9.1/softconsole/sourcery-g++/bin/../lib/gcc/arm-none-eabi/4.4.1/../../../../arm-none-eabi/lib/thumb2\libc.a(lib_a-mbtowc_r.o)
                              c:/actel/libero_v9.1/softconsole/sourcery-g++/bin/../lib/gcc/arm-none-eabi/4.4.1/../../../../arm-none-eabi/lib/thumb2\libc.a(lib_a-mbrtowc.o) (_mbtowc_r)
c:/actel/libero_v9.1/softconsole/sourcery-g++/bin/../lib/gcc/arm-none-eabi/4.4.1/../../../../arm-none-eabi/lib/thumb2\libc.a(lib_a-memchr.o)
                              c:/actel/libero_v9.1/softconsole/sourcery-g++/bin/../lib/gcc/arm-none-eabi/4.4.1/../../../../arm-none-eabi/lib/thumb2\libc.a(lib_a-svfprintf.o) (memchr)
c:/actel/libero_v9.1/softconsole/sourcery-g++/bin/../lib/gcc/arm-none-eabi/4.4.1/../../../../arm-none-eabi/lib/thumb2\libc.a(lib_a-memmove.o)
                              c:/actel/libero_v9.1/softconsole/sourcery-g++/bin/../lib/gcc/arm-none-eabi/4.4.1/../../../../arm-none-eabi/lib/thumb2\libc.a(lib_a-svfprintf.o) (memmove)
c:/actel/libero_v9.1/softconsole/sourcery-g++/bin/../lib/gcc/arm-none-eabi/4.4.1/../../../../arm-none-eabi/lib/thumb2\libc.a(lib_a-mprec.o)
                              c:/actel/libero_v9.1/softconsole/sourcery-g++/bin/../lib/gcc/arm-none-eabi/4.4.1/../../../../arm-none-eabi/lib/thumb2\libc.a(lib_a-dtoa.o) (__hi0bits)
c:/actel/libero_v9.1/softconsole/sourcery-g++/bin/../lib/gcc/arm-none-eabi/4.4.1/../../../../arm-none-eabi/lib/thumb2\libc.a(lib_a-putc.o)
                              c:/actel/libero_v9.1/softconsole/sourcery-g++/bin/../lib/gcc/arm-none-eabi/4.4.1/../../../../arm-none-eabi/lib/thumb2\libc.a(lib_a-putchar.o) (_putc_r)
c:/actel/libero_v9.1/softconsole/sourcery-g++/bin/../lib/gcc/arm-none-eabi/4.4.1/../../../../arm-none-eabi/lib/thumb2\libc.a(lib_a-reallocr.o)
                              c:/actel/libero_v9.1/softconsole/sourcery-g++/bin/../lib/gcc/arm-none-eabi/4.4.1/../../../../arm-none-eabi/lib/thumb2\libc.a(lib_a-svfprintf.o) (_realloc_r)
c:/actel/libero_v9.1/softconsole/sourcery-g++/bin/../lib/gcc/arm-none-eabi/4.4.1/../../../../arm-none-eabi/lib/thumb2\libc.a(lib_a-reent.o)
                              c:/actel/libero_v9.1/softconsole/sourcery-g++/bin/../lib/gcc/arm-none-eabi/4.4.1/../../../../arm-none-eabi/lib/thumb2\libc.a(lib_a-sbrkr.o) (errno)
c:/actel/libero_v9.1/softconsole/sourcery-g++/bin/../lib/gcc/arm-none-eabi/4.4.1/../../../../arm-none-eabi/lib/thumb2\libc.a(lib_a-s_isinfd.o)
                              c:/actel/libero_v9.1/softconsole/sourcery-g++/bin/../lib/gcc/arm-none-eabi/4.4.1/../../../../arm-none-eabi/lib/thumb2\libc.a(lib_a-svfprintf.o) (__isinfd)
c:/actel/libero_v9.1/softconsole/sourcery-g++/bin/../lib/gcc/arm-none-eabi/4.4.1/../../../../arm-none-eabi/lib/thumb2\libc.a(lib_a-s_isnand.o)
                              c:/actel/libero_v9.1/softconsole/sourcery-g++/bin/../lib/gcc/arm-none-eabi/4.4.1/../../../../arm-none-eabi/lib/thumb2\libc.a(lib_a-svfprintf.o) (__isnand)
c:/actel/libero_v9.1/softconsole/sourcery-g++/bin/../lib/gcc/arm-none-eabi/4.4.1/../../../../arm-none-eabi/lib/thumb2\libc.a(lib_a-sccl.o)
                              c:/actel/libero_v9.1/softconsole/sourcery-g++/bin/../lib/gcc/arm-none-eabi/4.4.1/../../../../arm-none-eabi/lib/thumb2\libc.a(lib_a-svfscanf.o) (__sccl)
c:/actel/libero_v9.1/softconsole/sourcery-g++/bin/../lib/gcc/arm-none-eabi/4.4.1/../../../../arm-none-eabi/lib/thumb2\libc.a(lib_a-sf_nan.o)
                              c:/actel/libero_v9.1/softconsole/sourcery-g++/bin/../lib/gcc/arm-none-eabi/4.4.1/../../../../arm-none-eabi/lib/thumb2\libc.a(lib_a-svfscanf.o) (nanf)
c:/actel/libero_v9.1/softconsole/sourcery-g++/bin/../lib/gcc/arm-none-eabi/4.4.1/../../../../arm-none-eabi/lib/thumb2\libc.a(lib_a-stdio.o)
                              c:/actel/libero_v9.1/softconsole/sourcery-g++/bin/../lib/gcc/arm-none-eabi/4.4.1/../../../../arm-none-eabi/lib/thumb2\libc.a(lib_a-findfp.o) (__sclose)
c:/actel/libero_v9.1/softconsole/sourcery-g++/bin/../lib/gcc/arm-none-eabi/4.4.1/../../../../arm-none-eabi/lib/thumb2\libc.a(lib_a-strtod.o)
                              c:/actel/libero_v9.1/softconsole/sourcery-g++/bin/../lib/gcc/arm-none-eabi/4.4.1/../../../../arm-none-eabi/lib/thumb2\libc.a(lib_a-svfscanf.o) (_strtod_r)
c:/actel/libero_v9.1/softconsole/sourcery-g++/bin/../lib/gcc/arm-none-eabi/4.4.1/../../../../arm-none-eabi/lib/thumb2\libc.a(lib_a-strtol.o)
                              c:/actel/libero_v9.1/softconsole/sourcery-g++/bin/../lib/gcc/arm-none-eabi/4.4.1/../../../../arm-none-eabi/lib/thumb2\libc.a(lib_a-svfscanf.o) (_strtol_r)
c:/actel/libero_v9.1/softconsole/sourcery-g++/bin/../lib/gcc/arm-none-eabi/4.4.1/../../../../arm-none-eabi/lib/thumb2\libc.a(lib_a-strtoll_r.o)
                              c:/actel/libero_v9.1/softconsole/sourcery-g++/bin/../lib/gcc/arm-none-eabi/4.4.1/../../../../arm-none-eabi/lib/thumb2\libc.a(lib_a-svfscanf.o) (_strtoll_r)
c:/actel/libero_v9.1/softconsole/sourcery-g++/bin/../lib/gcc/arm-none-eabi/4.4.1/../../../../arm-none-eabi/lib/thumb2\libc.a(lib_a-strtoul.o)
                              c:/actel/libero_v9.1/softconsole/sourcery-g++/bin/../lib/gcc/arm-none-eabi/4.4.1/../../../../arm-none-eabi/lib/thumb2\libc.a(lib_a-svfscanf.o) (_strtoul_r)
c:/actel/libero_v9.1/softconsole/sourcery-g++/bin/../lib/gcc/arm-none-eabi/4.4.1/../../../../arm-none-eabi/lib/thumb2\libc.a(lib_a-strtoull_r.o)
                              c:/actel/libero_v9.1/softconsole/sourcery-g++/bin/../lib/gcc/arm-none-eabi/4.4.1/../../../../arm-none-eabi/lib/thumb2\libc.a(lib_a-svfscanf.o) (_strtoull_r)
c:/actel/libero_v9.1/softconsole/sourcery-g++/bin/../lib/gcc/arm-none-eabi/4.4.1/../../../../arm-none-eabi/lib/thumb2\libc.a(lib_a-wbuf.o)
                              c:/actel/libero_v9.1/softconsole/sourcery-g++/bin/../lib/gcc/arm-none-eabi/4.4.1/../../../../arm-none-eabi/lib/thumb2\libc.a(lib_a-putc.o) (__swbuf_r)
c:/actel/libero_v9.1/softconsole/sourcery-g++/bin/../lib/gcc/arm-none-eabi/4.4.1/../../../../arm-none-eabi/lib/thumb2\libc.a(lib_a-callocr.o)
                              c:/actel/libero_v9.1/softconsole/sourcery-g++/bin/../lib/gcc/arm-none-eabi/4.4.1/../../../../arm-none-eabi/lib/thumb2\libc.a(lib_a-mprec.o) (_calloc_r)
c:/actel/libero_v9.1/softconsole/sourcery-g++/bin/../lib/gcc/arm-none-eabi/4.4.1/../../../../arm-none-eabi/lib/thumb2\libc.a(lib_a-closer.o)
                              c:/actel/libero_v9.1/softconsole/sourcery-g++/bin/../lib/gcc/arm-none-eabi/4.4.1/../../../../arm-none-eabi/lib/thumb2\libc.a(lib_a-stdio.o) (_close_r)
c:/actel/libero_v9.1/softconsole/sourcery-g++/bin/../lib/gcc/arm-none-eabi/4.4.1/../../../../arm-none-eabi/lib/thumb2\libc.a(lib_a-fclose.o)
                              c:/actel/libero_v9.1/softconsole/sourcery-g++/bin/../lib/gcc/arm-none-eabi/4.4.1/../../../../arm-none-eabi/lib/thumb2\libc.a(lib_a-findfp.o) (fclose)
c:/actel/libero_v9.1/softconsole/sourcery-g++/bin/../lib/gcc/arm-none-eabi/4.4.1/../../../../arm-none-eabi/lib/thumb2\libc.a(lib_a-fstatr.o)
                              c:/actel/libero_v9.1/softconsole/sourcery-g++/bin/../lib/gcc/arm-none-eabi/4.4.1/../../../../arm-none-eabi/lib/thumb2\libc.a(lib_a-makebuf.o) (_fstat_r)
c:/actel/libero_v9.1/softconsole/sourcery-g++/bin/../lib/gcc/arm-none-eabi/4.4.1/../../../../arm-none-eabi/lib/thumb2\libc.a(lib_a-gdtoa-gethex.o)
                              c:/actel/libero_v9.1/softconsole/sourcery-g++/bin/../lib/gcc/arm-none-eabi/4.4.1/../../../../arm-none-eabi/lib/thumb2\libc.a(lib_a-strtod.o) (__gethex)
c:/actel/libero_v9.1/softconsole/sourcery-g++/bin/../lib/gcc/arm-none-eabi/4.4.1/../../../../arm-none-eabi/lib/thumb2\libc.a(lib_a-gdtoa-hexnan.o)
                              c:/actel/libero_v9.1/softconsole/sourcery-g++/bin/../lib/gcc/arm-none-eabi/4.4.1/../../../../arm-none-eabi/lib/thumb2\libc.a(lib_a-strtod.o) (__hexnan)
c:/actel/libero_v9.1/softconsole/sourcery-g++/bin/../lib/gcc/arm-none-eabi/4.4.1/../../../../arm-none-eabi/lib/thumb2\libc.a(lib_a-isattyr.o)
                              c:/actel/libero_v9.1/softconsole/sourcery-g++/bin/../lib/gcc/arm-none-eabi/4.4.1/../../../../arm-none-eabi/lib/thumb2\libc.a(lib_a-makebuf.o) (_isatty_r)
c:/actel/libero_v9.1/softconsole/sourcery-g++/bin/../lib/gcc/arm-none-eabi/4.4.1/../../../../arm-none-eabi/lib/thumb2\libc.a(lib_a-lseekr.o)
                              c:/actel/libero_v9.1/softconsole/sourcery-g++/bin/../lib/gcc/arm-none-eabi/4.4.1/../../../../arm-none-eabi/lib/thumb2\libc.a(lib_a-stdio.o) (_lseek_r)
c:/actel/libero_v9.1/softconsole/sourcery-g++/bin/../lib/gcc/arm-none-eabi/4.4.1/../../../../arm-none-eabi/lib/thumb2\libc.a(lib_a-readr.o)
                              c:/actel/libero_v9.1/softconsole/sourcery-g++/bin/../lib/gcc/arm-none-eabi/4.4.1/../../../../arm-none-eabi/lib/thumb2\libc.a(lib_a-stdio.o) (_read_r)
c:/actel/libero_v9.1/softconsole/sourcery-g++/bin/../lib/gcc/arm-none-eabi/4.4.1/thumb2\libgcc.a(_udivsi3.o)
                              c:/actel/libero_v9.1/softconsole/sourcery-g++/bin/../lib/gcc/arm-none-eabi/4.4.1/../../../../arm-none-eabi/lib/thumb2\libc.a(lib_a-dtoa.o) (__aeabi_uidiv)
c:/actel/libero_v9.1/softconsole/sourcery-g++/bin/../lib/gcc/arm-none-eabi/4.4.1/thumb2\libgcc.a(_dvmd_tls.o)
                              c:/actel/libero_v9.1/softconsole/sourcery-g++/bin/../lib/gcc/arm-none-eabi/4.4.1/thumb2\libgcc.a(_udivsi3.o) (__aeabi_idiv0)
c:/actel/libero_v9.1/softconsole/sourcery-g++/bin/../lib/gcc/arm-none-eabi/4.4.1/thumb2\libgcc.a(_arm_addsubdf3.o)
                              c:/actel/libero_v9.1/softconsole/sourcery-g++/bin/../lib/gcc/arm-none-eabi/4.4.1/../../../../arm-none-eabi/lib/thumb2\libc.a(lib_a-dtoa.o) (__aeabi_dsub)
c:/actel/libero_v9.1/softconsole/sourcery-g++/bin/../lib/gcc/arm-none-eabi/4.4.1/thumb2\libgcc.a(_arm_muldivdf3.o)
                              c:/actel/libero_v9.1/softconsole/sourcery-g++/bin/../lib/gcc/arm-none-eabi/4.4.1/../../../../arm-none-eabi/lib/thumb2\libc.a(lib_a-dtoa.o) (__aeabi_dmul)
c:/actel/libero_v9.1/softconsole/sourcery-g++/bin/../lib/gcc/arm-none-eabi/4.4.1/thumb2\libgcc.a(_arm_cmpdf2.o)
                              c:/actel/libero_v9.1/softconsole/sourcery-g++/bin/../lib/gcc/arm-none-eabi/4.4.1/../../../../arm-none-eabi/lib/thumb2\libc.a(lib_a-svfprintf.o) (__aeabi_dcmpeq)
c:/actel/libero_v9.1/softconsole/sourcery-g++/bin/../lib/gcc/arm-none-eabi/4.4.1/thumb2\libgcc.a(_arm_fixdfsi.o)
                              c:/actel/libero_v9.1/softconsole/sourcery-g++/bin/../lib/gcc/arm-none-eabi/4.4.1/../../../../arm-none-eabi/lib/thumb2\libc.a(lib_a-dtoa.o) (__aeabi_d2iz)
c:/actel/libero_v9.1/softconsole/sourcery-g++/bin/../lib/gcc/arm-none-eabi/4.4.1/thumb2\libgcc.a(_arm_fixunsdfsi.o)
                              c:/actel/libero_v9.1/softconsole/sourcery-g++/bin/../lib/gcc/arm-none-eabi/4.4.1/../../../../arm-none-eabi/lib/thumb2\libc.a(lib_a-strtod.o) (__aeabi_d2uiz)
c:/actel/libero_v9.1/softconsole/sourcery-g++/bin/../lib/gcc/arm-none-eabi/4.4.1/thumb2\libgcc.a(_arm_truncdfsf2.o)
                              c:/actel/libero_v9.1/softconsole/sourcery-g++/bin/../lib/gcc/arm-none-eabi/4.4.1/../../../../arm-none-eabi/lib/thumb2\libc.a(lib_a-svfscanf.o) (__aeabi_d2f)
c:/actel/libero_v9.1/softconsole/sourcery-g++/bin/../lib/gcc/arm-none-eabi/4.4.1/thumb2\libgcc.a(_arm_cmpsf2.o)
                              c:/actel/libero_v9.1/softconsole/sourcery-g++/bin/../lib/gcc/arm-none-eabi/4.4.1/../../../../arm-none-eabi/lib/thumb2\libc.a(lib_a-strtod.o) (__aeabi_fcmpeq)
c:/actel/libero_v9.1/softconsole/sourcery-g++/bin/../lib/gcc/arm-none-eabi/4.4.1/thumb2\libgcc.a(_aeabi_uldivmod.o)
                              c:/actel/libero_v9.1/softconsole/sourcery-g++/bin/../lib/gcc/arm-none-eabi/4.4.1/../../../../arm-none-eabi/lib/thumb2\libc.a(lib_a-svfprintf.o) (__aeabi_uldivmod)
c:/actel/libero_v9.1/softconsole/sourcery-g++/bin/../lib/gcc/arm-none-eabi/4.4.1/thumb2\libgcc.a(bpabi.o)
                              c:/actel/libero_v9.1/softconsole/sourcery-g++/bin/../lib/gcc/arm-none-eabi/4.4.1/thumb2\libgcc.a(_aeabi_uldivmod.o) (__gnu_uldivmod_helper)
c:/actel/libero_v9.1/softconsole/sourcery-g++/bin/../lib/gcc/arm-none-eabi/4.4.1/thumb2\libgcc.a(_divdi3.o)
                              c:/actel/libero_v9.1/softconsole/sourcery-g++/bin/../lib/gcc/arm-none-eabi/4.4.1/thumb2\libgcc.a(bpabi.o) (__divdi3)
c:/actel/libero_v9.1/softconsole/sourcery-g++/bin/../lib/gcc/arm-none-eabi/4.4.1/thumb2\libgcc.a(_udivdi3.o)
                              c:/actel/libero_v9.1/softconsole/sourcery-g++/bin/../lib/gcc/arm-none-eabi/4.4.1/thumb2\libgcc.a(bpabi.o) (__udivdi3)

Allocating common symbols
Common symbol       size              file

ip_id               0x2               ./mac/tcpip.o
tcb                 0x28              ./mac/tcpip.o
uip_len             0x2               ./uip/uip.o
config_step         0x1               ./application_tasks/nunchuck_task.o
errno               0x4               c:/actel/libero_v9.1/softconsole/sourcery-g++/bin/../lib/gcc/arm-none-eabi/4.4.1/../../../../arm-none-eabi/lib/thumb2\libc.a(lib_a-reent.o)
num_instructions    0x2               ./application_tasks/http_task.o
g_mss_spi1          0x7c              C:\Users\kylebs\Desktop\FreeRTOS-lwIP-takeDeux\FreeRTOS-lwIP\Webserver_uIPRTOS_SC_DF\EVAL_KIT\SF_Webserver_Demo\SoftConsole\Webserver_MSS_CM3_0\Webserver_MSS_CM3_0_hw_platform\Debug\libWebserver_MSS_CM3_0_hw_platform.a(mss_spi.o)
uip_sappdata        0x4               ./uip/uip.o
uip_acc32           0x4               ./uip/uip.o
controller_status   0x1               ./application_tasks/nunchuck_task.o
g_mss_mac           0x24cc            C:\Users\kylebs\Desktop\FreeRTOS-lwIP-takeDeux\FreeRTOS-lwIP\Webserver_uIPRTOS_SC_DF\EVAL_KIT\SF_Webserver_Demo\SoftConsole\Webserver_MSS_CM3_0\Webserver_MSS_CM3_0_hw_platform\Debug\libWebserver_MSS_CM3_0_hw_platform.a(mss_ethernet_mac.o)
uip_flags           0x1               ./uip/uip.o
next_job_id         0x2               ./application_tasks/http_task.o
dhcp_ip_found       0x1               ./mac/tcpip.o
__hexdig            0x100             c:/actel/libero_v9.1/softconsole/sourcery-g++/bin/../lib/gcc/arm-none-eabi/4.4.1/../../../../arm-none-eabi/lib/thumb2\libc.a(lib_a-gdtoa-gethex.o)
g_lcd_uart          0x8               C:\Users\kylebs\Desktop\FreeRTOS-lwIP-takeDeux\FreeRTOS-lwIP\Webserver_uIPRTOS_SC_DF\EVAL_KIT\SF_Webserver_Demo\SoftConsole\Webserver_MSS_CM3_0\Webserver_MSS_CM3_0_hw_platform\Debug\libWebserver_MSS_CM3_0_hw_platform.a(plotter_platform.o)
plotter_current_mode
                    0x1               ./application_tasks/controller_task.o
JSON_buffer         0x800             ./application_tasks/http_task.o
uip_udp_conn        0x4               ./uip/uip.o
g_mac               0x24cc            ./mac/tcpip.o
g_mss_uart1         0x28              C:\Users\kylebs\Desktop\FreeRTOS-lwIP-takeDeux\FreeRTOS-lwIP\Webserver_uIPRTOS_SC_DF\EVAL_KIT\SF_Webserver_Demo\SoftConsole\Webserver_MSS_CM3_0\Webserver_MSS_CM3_0_hw_platform\Debug\libWebserver_MSS_CM3_0_hw_platform.a(mss_uart.o)
uip_appdata         0x4               ./uip/uip.o
uip_conn            0x4               ./uip/uip.o
ip_known            0x1               ./mac/tcpip.o
uip_conns           0x338             ./uip/uip.o
tcp_packet          0x5fc             ./mac/tcpip.o
get_count           0x5               ./mac/tcpip.o
g_mss_i2c0          0x44              ./BSP/i2c_driver/i2c.o
num_queued_jobs     0x2               ./application_tasks/http_task.o
g_mss_uart0         0x28              C:\Users\kylebs\Desktop\FreeRTOS-lwIP-takeDeux\FreeRTOS-lwIP\Webserver_uIPRTOS_SC_DF\EVAL_KIT\SF_Webserver_Demo\SoftConsole\Webserver_MSS_CM3_0\Webserver_MSS_CM3_0_hw_platform\Debug\libWebserver_MSS_CM3_0_hw_platform.a(mss_uart.o)
oled_string         0x14              ./mac/tcpip.o
uip_listenports     0x8               ./uip/uip.o
uip_draddr          0x4               ./uip/uip.o
uip_stat            0x34              ./uip/uip.o
plotter_instructions
                    0x4b0             ./application_tasks/http_task.o
receive_buf         0x6               ./application_tasks/nunchuck_task.o
g_mss_spi0          0x7c              C:\Users\kylebs\Desktop\FreeRTOS-lwIP-takeDeux\FreeRTOS-lwIP\Webserver_uIPRTOS_SC_DF\EVAL_KIT\SF_Webserver_Demo\SoftConsole\Webserver_MSS_CM3_0\Webserver_MSS_CM3_0_hw_platform\Debug\libWebserver_MSS_CM3_0_hw_platform.a(mss_spi.o)
g_mss_i2c1          0x44              ./BSP/i2c_driver/i2c.o
uip_netmask         0x4               ./uip/uip.o
uip_hostaddr        0x4               ./uip/uip.o
JSMN_tokens         0x640             ./application_tasks/http_task.o
cur_instruction     0x2               ./application_tasks/http_task.o
uip_buf             0x642             ./uip/uip.o
uip_slen            0x2               ./uip/uip.o
ready_for_next_instruction
                    0x1               ./application_tasks/http_task.o
uip_udp_conns       0xa0              ./uip/uip.o

Discarded input sections

 .text          0x00000000        0x0 c:/actel/libero_v9.1/softconsole/sourcery-g++/bin/../lib/gcc/arm-none-eabi/4.4.1/thumb2/crti.o
 .data          0x00000000        0x0 c:/actel/libero_v9.1/softconsole/sourcery-g++/bin/../lib/gcc/arm-none-eabi/4.4.1/thumb2/crti.o
 .bss           0x00000000        0x0 c:/actel/libero_v9.1/softconsole/sourcery-g++/bin/../lib/gcc/arm-none-eabi/4.4.1/thumb2/crti.o
 .data          0x00000000        0x4 c:/actel/libero_v9.1/softconsole/sourcery-g++/bin/../lib/gcc/arm-none-eabi/4.4.1/thumb2/crtbegin.o
 .text          0x00000000        0x0 ./main.o
 .data          0x00000000        0x0 ./main.o
 .bss           0x00000000        0x0 ./main.o
 .text.vApplicationIdleHook
                0x00000000        0xc ./main.o
 .text          0x00000000        0x0 ./webclient/webclient-strings.o
 .data          0x00000000        0x0 ./webclient/webclient-strings.o
 .bss           0x00000000        0x0 ./webclient/webclient-strings.o
 .rodata.http_texthtml
                0x00000000        0xc ./webclient/webclient-strings.o
 .rodata.http_index_html
                0x00000000        0xc ./webclient/webclient-strings.o
 .rodata.http_404_html
                0x00000000        0xc ./webclient/webclient-strings.o
 .rodata.http_content_type_html
                0x00000000       0x1c ./webclient/webclient-strings.o
 .rodata.http_content_type_css
                0x00000000       0x1c ./webclient/webclient-strings.o
 .rodata.http_content_type_text
                0x00000000       0x1c ./webclient/webclient-strings.o
 .rodata.http_content_type_png
                0x00000000       0x1c ./webclient/webclient-strings.o
 .rodata.http_content_type_gif
                0x00000000       0x1c ./webclient/webclient-strings.o
 .rodata.http_content_type_jpg
                0x00000000       0x20 ./webclient/webclient-strings.o
 .rodata.http_content_type_binary
                0x00000000       0x2c ./webclient/webclient-strings.o
 .rodata.http_html
                0x00000000        0x8 ./webclient/webclient-strings.o
 .rodata.http_shtml
                0x00000000        0x8 ./webclient/webclient-strings.o
 .rodata.http_htm
                0x00000000        0x8 ./webclient/webclient-strings.o
 .rodata.http_css
                0x00000000        0x8 ./webclient/webclient-strings.o
 .rodata.http_png
                0x00000000        0x8 ./webclient/webclient-strings.o
 .rodata.http_gif
                0x00000000        0x8 ./webclient/webclient-strings.o
 .rodata.http_jpg
                0x00000000        0x8 ./webclient/webclient-strings.o
 .rodata.http_text
                0x00000000        0x8 ./webclient/webclient-strings.o
 .rodata.http_txt
                0x00000000        0x8 ./webclient/webclient-strings.o
 .text          0x00000000        0x0 ./webclient/webclient.o
 .data          0x00000000        0x0 ./webclient/webclient.o
 .bss           0x00000000        0x0 ./webclient/webclient.o
 .bss.debug_print
                0x00000000      0x800 ./webclient/webclient.o
 .text.webclient_mimetype
                0x00000000       0x14 ./webclient/webclient.o
 .text.webclient_filename
                0x00000000       0x14 ./webclient/webclient.o
 .text.webclient_hostname
                0x00000000       0x14 ./webclient/webclient.o
 .text.webclient_port
                0x00000000       0x18 ./webclient/webclient.o
 .text.webclient_close
                0x00000000       0x18 ./webclient/webclient.o
 .text          0x00000000        0x0 ./uip/psock.o
 .data          0x00000000        0x0 ./uip/psock.o
 .bss           0x00000000        0x0 ./uip/psock.o
 .text.buf_setup
                0x00000000       0x24 ./uip/psock.o
 .text.buf_bufdata
                0x00000000      0x11c ./uip/psock.o
 .text.buf_bufto
                0x00000000       0xa8 ./uip/psock.o
 .text.send_data
                0x00000000       0x6c ./uip/psock.o
 .text.data_acked
                0x00000000       0x88 ./uip/psock.o
 .text.psock_send
                0x00000000       0x94 ./uip/psock.o
 .text.psock_generator_send
                0x00000000       0xb8 ./uip/psock.o
 .text.psock_datalen
                0x00000000       0x24 ./uip/psock.o
 .text.psock_newdata
                0x00000000       0x58 ./uip/psock.o
 .text.psock_readto
                0x00000000       0xcc ./uip/psock.o
 .rodata        0x00000000       0x14 ./uip/psock.o
 .text.psock_readbuf
                0x00000000       0xd0 ./uip/psock.o
 .text.psock_init
                0x00000000       0x48 ./uip/psock.o
 .text          0x00000000        0x0 ./uip/uip-fw.o
 .data          0x00000000        0x0 ./uip/uip-fw.o
 .bss           0x00000000        0x0 ./uip/uip-fw.o
 .bss.netifs    0x00000000        0x4 ./uip/uip-fw.o
 .bss.defaultnetif
                0x00000000        0x4 ./uip/uip-fw.o
 .bss.fwcache   0x00000000       0x1c ./uip/uip-fw.o
 .text.uip_fw_init
                0x00000000       0x58 ./uip/uip-fw.o
 .text.ipaddr_maskcmp
                0x00000000       0x68 ./uip/uip-fw.o
 .text.time_exceeded
                0x00000000      0x120 ./uip/uip-fw.o
 .text.fwcache_register
                0x00000000      0x110 ./uip/uip-fw.o
 .text.find_netif
                0x00000000       0x5c ./uip/uip-fw.o
 .text.uip_fw_output
                0x00000000       0x44 ./uip/uip-fw.o
 .text.uip_fw_forward
                0x00000000      0x13c ./uip/uip-fw.o
 .text.uip_fw_register
                0x00000000       0x2c ./uip/uip-fw.o
 .text.uip_fw_default
                0x00000000       0x20 ./uip/uip-fw.o
 .text.uip_fw_periodic
                0x00000000       0x48 ./uip/uip-fw.o
 .text          0x00000000        0x0 ./uip/uip-neighbor.o
 .data          0x00000000        0x0 ./uip/uip-neighbor.o
 .bss           0x00000000        0x0 ./uip/uip-neighbor.o
 .bss.entries   0x00000000       0x60 ./uip/uip-neighbor.o
 .text.uip_neighbor_init
                0x00000000       0x48 ./uip/uip-neighbor.o
 .text.uip_neighbor_periodic
                0x00000000       0x8c ./uip/uip-neighbor.o
 .rodata        0x00000000       0x44 ./uip/uip-neighbor.o
 .text.uip_neighbor_add
                0x00000000      0x1c4 ./uip/uip-neighbor.o
 .text.find_entry
                0x00000000       0x9c ./uip/uip-neighbor.o
 .text.uip_neighbor_update
                0x00000000       0x28 ./uip/uip-neighbor.o
 .text.uip_neighbor_lookup
                0x00000000       0x30 ./uip/uip-neighbor.o
 .text          0x00000000        0x0 ./uip/uip-split.o
 .data          0x00000000        0x0 ./uip/uip-split.o
 .bss           0x00000000        0x0 ./uip/uip-split.o
 .text.uip_split_output
                0x00000000      0x1a8 ./uip/uip-split.o
 .text          0x00000000        0x0 ./uip/uip.o
 .data          0x00000000        0x0 ./uip/uip.o
 .bss           0x00000000        0x0 ./uip/uip.o
 .text.uip_setipid
                0x00000000       0x20 ./uip/uip.o
 .text.uip_chksum
                0x00000000       0x30 ./uip/uip.o
 .text.uip_unlisten
                0x00000000       0x88 ./uip/uip.o
 .text.uip_listen
                0x00000000       0x84 ./uip/uip.o
 .text          0x00000000        0x0 ./uip/uip_arp.o
 .data          0x00000000        0x0 ./uip/uip_arp.o
 .bss           0x00000000        0x0 ./uip/uip_arp.o
 .text.uip_arp_init
                0x00000000       0x70 ./uip/uip_arp.o
 .text          0x00000000        0x0 ./uip/uiplib.o
 .data          0x00000000        0x0 ./uip/uiplib.o
 .bss           0x00000000        0x0 ./uip/uiplib.o
 .text          0x00000000        0x0 ./resolv/resolv.o
 .data          0x00000000        0x0 ./resolv/resolv.o
 .bss           0x00000000        0x0 ./resolv/resolv.o
 .text.parse_name
                0x00000000       0x48 ./resolv/resolv.o
 .text.check_entries
                0x00000000      0x1e0 ./resolv/resolv.o
 .text.newdata  0x00000000      0x180 ./resolv/resolv.o
 .text.resolv_getserver
                0x00000000       0x2c ./resolv/resolv.o
 .bss.i.2744    0x00000000        0x1 ./resolv/resolv.o
 .bss.nquestions.2742
                0x00000000        0x1 ./resolv/resolv.o
 .bss.nanswers.2743
                0x00000000        0x1 ./resolv/resolv.o
 .bss.i.2672    0x00000000        0x1 ./resolv/resolv.o
 .bss.n.2673    0x00000000        0x1 ./resolv/resolv.o
 .data.endquery.2681
                0x00000000        0x8 ./resolv/resolv.o
 .text          0x00000000        0x0 ./mac/tcpip.o
 .data          0x00000000        0x0 ./mac/tcpip.o
 .bss           0x00000000        0x0 ./mac/tcpip.o
 .bss.selected_mode
                0x00000000        0x1 ./mac/tcpip.o
 .bss.selectedwaveform
                0x00000000        0x1 ./mac/tcpip.o
 .bss.rtc_count
                0x00000000        0x8 ./mac/tcpip.o
 .data.rtc_match_count
                0x00000000        0x8 ./mac/tcpip.o
 .text.send_gratuitous_arp
                0x00000000      0x118 ./mac/tcpip.o
 .text.dtoa_reverse
                0x00000000       0x80 ./mac/tcpip.o
 .text.hex_digits_to_byte
                0x00000000       0x58 ./mac/tcpip.o
 .text.xstrcpy  0x00000000       0x48 ./mac/tcpip.o
 .text          0x00000000        0x0 ./jsmn/jsmn.o
 .data          0x00000000        0x0 ./jsmn/jsmn.o
 .bss           0x00000000        0x0 ./jsmn/jsmn.o
 .text          0x00000000        0x0 ./application_tasks/controller_task.o
 .data          0x00000000        0x0 ./application_tasks/controller_task.o
 .bss           0x00000000        0x0 ./application_tasks/controller_task.o
 .text          0x00000000        0x0 ./application_tasks/http_task.o
 .data          0x00000000        0x0 ./application_tasks/http_task.o
 .bss           0x00000000        0x0 ./application_tasks/http_task.o
 .text.resolv_found
                0x00000000       0x90 ./application_tasks/http_task.o
 .text          0x00000000        0x0 ./application_tasks/lcd_task.o
 .data          0x00000000        0x0 ./application_tasks/lcd_task.o
 .bss           0x00000000        0x0 ./application_tasks/lcd_task.o
 .text.lcd_set_debug
                0x00000000       0x58 ./application_tasks/lcd_task.o
 .text          0x00000000        0x0 ./application_tasks/nunchuck_task.o
 .data          0x00000000        0x0 ./application_tasks/nunchuck_task.o
 .bss           0x00000000        0x0 ./application_tasks/nunchuck_task.o
 .bss.i         0x00000000        0x4 ./application_tasks/nunchuck_task.o
 .rodata.delay_1ms
                0x00000000        0x2 ./application_tasks/nunchuck_task.o
 .text          0x00000000        0x0 ./FreeRTOS/list.o
 .data          0x00000000        0x0 ./FreeRTOS/list.o
 .bss           0x00000000        0x0 ./FreeRTOS/list.o
 .text          0x00000000        0x0 ./FreeRTOS/queue.o
 .data          0x00000000        0x0 ./FreeRTOS/queue.o
 .bss           0x00000000        0x0 ./FreeRTOS/queue.o
 .text.xQueueCreateMutex
                0x00000000       0xa8 ./FreeRTOS/queue.o
 .text.xQueueGiveMutexRecursive
                0x00000000       0x68 ./FreeRTOS/queue.o
 .text.xQueueTakeMutexRecursive
                0x00000000       0x74 ./FreeRTOS/queue.o
 .text.xQueueCreateCountingSemaphore
                0x00000000       0x40 ./FreeRTOS/queue.o
 .text.xQueueReceiveFromISR
                0x00000000       0xe0 ./FreeRTOS/queue.o
 .text.uxQueueMessagesWaiting
                0x00000000       0x34 ./FreeRTOS/queue.o
 .text.uxQueueMessagesWaitingFromISR
                0x00000000       0x2c ./FreeRTOS/queue.o
 .text.vQueueDelete
                0x00000000       0x30 ./FreeRTOS/queue.o
 .text.xQueueIsQueueEmptyFromISR
                0x00000000       0x34 ./FreeRTOS/queue.o
 .text.xQueueIsQueueFullFromISR
                0x00000000       0x38 ./FreeRTOS/queue.o
 .text          0x00000000        0x0 ./FreeRTOS/tasks.o
 .data          0x00000000        0x0 ./FreeRTOS/tasks.o
 .bss           0x00000000        0x0 ./FreeRTOS/tasks.o
 .bss.pcStatsString
                0x00000000       0x34 ./FreeRTOS/tasks.o
 .text.vTaskDelete
                0x00000000       0xc0 ./FreeRTOS/tasks.o
 .text.vTaskDelayUntil
                0x00000000       0xe4 ./FreeRTOS/tasks.o
 .text.uxTaskPriorityGet
                0x00000000       0x38 ./FreeRTOS/tasks.o
 .text.vTaskPrioritySet
                0x00000000      0x144 ./FreeRTOS/tasks.o
 .text.xTaskResumeFromISR
                0x00000000       0xd0 ./FreeRTOS/tasks.o
 .text.vTaskEndScheduler
                0x00000000       0x20 ./FreeRTOS/tasks.o
 .text.xTaskGetTickCountFromISR
                0x00000000       0x38 ./FreeRTOS/tasks.o
 .text.uxTaskGetNumberOfTasks
                0x00000000       0x18 ./FreeRTOS/tasks.o
 .text.vTaskGetRunTimeStats
                0x00000000      0x140 ./FreeRTOS/tasks.o
 .text.vTaskCleanUpResources
                0x00000000      0x1ac ./FreeRTOS/tasks.o
 .text.prvGenerateRunTimeStatsForTasksInList
                0x00000000      0x10c ./FreeRTOS/tasks.o
 .text          0x00000000        0x0 ./FreeRTOS/timers.o
 .data          0x00000000        0x0 ./FreeRTOS/timers.o
 .bss           0x00000000        0x0 ./FreeRTOS/timers.o
 .text.xTimerCreate
                0x00000000       0x78 ./FreeRTOS/timers.o
 .text.xTimerIsTimerActive
                0x00000000       0x30 ./FreeRTOS/timers.o
 .text.pvTimerGetTimerID
                0x00000000       0x1c ./FreeRTOS/timers.o
 .text          0x00000000        0x0 ./FreeRTOS/portable/MemMang/heap_3.o
 .data          0x00000000        0x0 ./FreeRTOS/portable/MemMang/heap_3.o
 .bss           0x00000000        0x0 ./FreeRTOS/portable/MemMang/heap_3.o
 .text          0x00000000        0x0 ./FreeRTOS/portable/GCC/ARM_CM3/port.o
 .data          0x00000000        0x0 ./FreeRTOS/portable/GCC/ARM_CM3/port.o
 .bss           0x00000000        0x0 ./FreeRTOS/portable/GCC/ARM_CM3/port.o
 .rodata.ulKernelPriority
                0x00000000        0x4 ./FreeRTOS/portable/GCC/ARM_CM3/port.o
 .text.vPortEndScheduler
                0x00000000        0xc ./FreeRTOS/portable/GCC/ARM_CM3/port.o
 .text          0x00000000        0x0 ./BSP/spi_flash_driver/spi_flash.o
 .data          0x00000000        0x0 ./BSP/spi_flash_driver/spi_flash.o
 .bss           0x00000000        0x0 ./BSP/spi_flash_driver/spi_flash.o
 .text.spi_flash_init
                0x00000000       0x54 ./BSP/spi_flash_driver/spi_flash.o
 .text.spi_flash_control_hw
                0x00000000      0x650 ./BSP/spi_flash_driver/spi_flash.o
 .text.spi_flash_read
                0x00000000       0x94 ./BSP/spi_flash_driver/spi_flash.o
 .text.write_cmd_data
                0x00000000       0x70 ./BSP/spi_flash_driver/spi_flash.o
 .text.spi_flash_write
                0x00000000      0x1e8 ./BSP/spi_flash_driver/spi_flash.o
 .text.wait_ready
                0x00000000       0x5c ./BSP/spi_flash_driver/spi_flash.o
 .text          0x00000000        0x0 ./BSP/i2c_driver/i2c.o
 .data          0x00000000        0x0 ./BSP/i2c_driver/i2c.o
 .bss           0x00000000        0x0 ./BSP/i2c_driver/i2c.o
 .text.MSS_I2C_set_slave_mem_offset_length
                0x00000000       0x3c ./BSP/i2c_driver/i2c.o
 .text.MSS_I2C_register_write_handler
                0x00000000       0x38 ./BSP/i2c_driver/i2c.o
 .text.MSS_I2C_write_read
                0x00000000       0xd8 ./BSP/i2c_driver/i2c.o
 .text.MSS_I2C_set_slave_rx_buffer
                0x00000000       0x58 ./BSP/i2c_driver/i2c.o
 .text.MSS_I2C_get_status
                0x00000000       0x3c ./BSP/i2c_driver/i2c.o
 .text.MSS_I2C_set_slave_tx_buffer
                0x00000000       0x60 ./BSP/i2c_driver/i2c.o
 .text.MSS_I2C_enable_slave_rx
                0x00000000       0x50 ./BSP/i2c_driver/i2c.o
 .text          0x00000000        0x0 ./BSP/emc_driver/nor.o
 .data          0x00000000        0x0 ./BSP/emc_driver/nor.o
 .bss           0x00000000        0x0 ./BSP/emc_driver/nor.o
 .text.emc_init
                0x00000000       0x30 ./BSP/emc_driver/nor.o
 .text.flash_delay
                0x00000000       0x34 ./BSP/emc_driver/nor.o
 .text.status_wait
                0x00000000       0x68 ./BSP/emc_driver/nor.o
 .text.emc_flash_block_erase
                0x00000000       0x90 ./BSP/emc_driver/nor.o
 .text.emc_flash_chip_erase
                0x00000000       0x60 ./BSP/emc_driver/nor.o
 .text.emc_flash_write
                0x00000000      0x204 ./BSP/emc_driver/nor.o
 .text.emc_flash_read
                0x00000000       0xa0 ./BSP/emc_driver/nor.o
 .text          0x00000000        0x0 C:/Users/kylebs/Desktop/FreeRTOS-lwIP-takeDeux/FreeRTOS-lwIP/Webserver_uIPRTOS_SC_DF/EVAL_KIT/SF_Webserver_Demo/SoftConsole/Webserver_MSS_CM3_0/Webserver_MSS_CM3_0_hw_platform/Debug/CMSIS/startup_gcc/startup_a2fxxxm3.o
 .data          0x00000000        0x0 C:/Users/kylebs/Desktop/FreeRTOS-lwIP-takeDeux/FreeRTOS-lwIP/Webserver_uIPRTOS_SC_DF/EVAL_KIT/SF_Webserver_Demo/SoftConsole/Webserver_MSS_CM3_0/Webserver_MSS_CM3_0_hw_platform/Debug/CMSIS/startup_gcc/startup_a2fxxxm3.o
 .bss           0x00000000        0x0 C:/Users/kylebs/Desktop/FreeRTOS-lwIP-takeDeux/FreeRTOS-lwIP/Webserver_uIPRTOS_SC_DF/EVAL_KIT/SF_Webserver_Demo/SoftConsole/Webserver_MSS_CM3_0/Webserver_MSS_CM3_0_hw_platform/Debug/CMSIS/startup_gcc/startup_a2fxxxm3.o
 .text          0x00000000        0x0 C:/Users/kylebs/Desktop/FreeRTOS-lwIP-takeDeux/FreeRTOS-lwIP/Webserver_uIPRTOS_SC_DF/EVAL_KIT/SF_Webserver_Demo/SoftConsole/Webserver_MSS_CM3_0/Webserver_MSS_CM3_0_hw_platform/Debug/CMSIS/startup_gcc/newlib_stubs.o
 .data          0x00000000        0x0 C:/Users/kylebs/Desktop/FreeRTOS-lwIP-takeDeux/FreeRTOS-lwIP/Webserver_uIPRTOS_SC_DF/EVAL_KIT/SF_Webserver_Demo/SoftConsole/Webserver_MSS_CM3_0/Webserver_MSS_CM3_0_hw_platform/Debug/CMSIS/startup_gcc/newlib_stubs.o
 .bss           0x00000000        0x0 C:/Users/kylebs/Desktop/FreeRTOS-lwIP-takeDeux/FreeRTOS-lwIP/Webserver_uIPRTOS_SC_DF/EVAL_KIT/SF_Webserver_Demo/SoftConsole/Webserver_MSS_CM3_0/Webserver_MSS_CM3_0_hw_platform/Debug/CMSIS/startup_gcc/newlib_stubs.o
 .bss.__env     0x00000000        0x4 C:/Users/kylebs/Desktop/FreeRTOS-lwIP-takeDeux/FreeRTOS-lwIP/Webserver_uIPRTOS_SC_DF/EVAL_KIT/SF_Webserver_Demo/SoftConsole/Webserver_MSS_CM3_0/Webserver_MSS_CM3_0_hw_platform/Debug/CMSIS/startup_gcc/newlib_stubs.o
 .data.environ  0x00000000        0x4 C:/Users/kylebs/Desktop/FreeRTOS-lwIP-takeDeux/FreeRTOS-lwIP/Webserver_uIPRTOS_SC_DF/EVAL_KIT/SF_Webserver_Demo/SoftConsole/Webserver_MSS_CM3_0/Webserver_MSS_CM3_0_hw_platform/Debug/CMSIS/startup_gcc/newlib_stubs.o
 .text._execve  0x00000000       0x28 C:/Users/kylebs/Desktop/FreeRTOS-lwIP-takeDeux/FreeRTOS-lwIP/Webserver_uIPRTOS_SC_DF/EVAL_KIT/SF_Webserver_Demo/SoftConsole/Webserver_MSS_CM3_0/Webserver_MSS_CM3_0_hw_platform/Debug/CMSIS/startup_gcc/newlib_stubs.o
 .text._fork    0x00000000       0x18 C:/Users/kylebs/Desktop/FreeRTOS-lwIP-takeDeux/FreeRTOS-lwIP/Webserver_uIPRTOS_SC_DF/EVAL_KIT/SF_Webserver_Demo/SoftConsole/Webserver_MSS_CM3_0/Webserver_MSS_CM3_0_hw_platform/Debug/CMSIS/startup_gcc/newlib_stubs.o
 .text._getpid  0x00000000       0x10 C:/Users/kylebs/Desktop/FreeRTOS-lwIP-takeDeux/FreeRTOS-lwIP/Webserver_uIPRTOS_SC_DF/EVAL_KIT/SF_Webserver_Demo/SoftConsole/Webserver_MSS_CM3_0/Webserver_MSS_CM3_0_hw_platform/Debug/CMSIS/startup_gcc/newlib_stubs.o
 .text._kill    0x00000000       0x24 C:/Users/kylebs/Desktop/FreeRTOS-lwIP-takeDeux/FreeRTOS-lwIP/Webserver_uIPRTOS_SC_DF/EVAL_KIT/SF_Webserver_Demo/SoftConsole/Webserver_MSS_CM3_0/Webserver_MSS_CM3_0_hw_platform/Debug/CMSIS/startup_gcc/newlib_stubs.o
 .text._link    0x00000000       0x24 C:/Users/kylebs/Desktop/FreeRTOS-lwIP-takeDeux/FreeRTOS-lwIP/Webserver_uIPRTOS_SC_DF/EVAL_KIT/SF_Webserver_Demo/SoftConsole/Webserver_MSS_CM3_0/Webserver_MSS_CM3_0_hw_platform/Debug/CMSIS/startup_gcc/newlib_stubs.o
 .text._open    0x00000000       0x1c C:/Users/kylebs/Desktop/FreeRTOS-lwIP-takeDeux/FreeRTOS-lwIP/Webserver_uIPRTOS_SC_DF/EVAL_KIT/SF_Webserver_Demo/SoftConsole/Webserver_MSS_CM3_0/Webserver_MSS_CM3_0_hw_platform/Debug/CMSIS/startup_gcc/newlib_stubs.o
 .text._stat    0x00000000       0x24 C:/Users/kylebs/Desktop/FreeRTOS-lwIP-takeDeux/FreeRTOS-lwIP/Webserver_uIPRTOS_SC_DF/EVAL_KIT/SF_Webserver_Demo/SoftConsole/Webserver_MSS_CM3_0/Webserver_MSS_CM3_0_hw_platform/Debug/CMSIS/startup_gcc/newlib_stubs.o
 .text._times   0x00000000       0x18 C:/Users/kylebs/Desktop/FreeRTOS-lwIP-takeDeux/FreeRTOS-lwIP/Webserver_uIPRTOS_SC_DF/EVAL_KIT/SF_Webserver_Demo/SoftConsole/Webserver_MSS_CM3_0/Webserver_MSS_CM3_0_hw_platform/Debug/CMSIS/startup_gcc/newlib_stubs.o
 .text._unlink  0x00000000       0x24 C:/Users/kylebs/Desktop/FreeRTOS-lwIP-takeDeux/FreeRTOS-lwIP/Webserver_uIPRTOS_SC_DF/EVAL_KIT/SF_Webserver_Demo/SoftConsole/Webserver_MSS_CM3_0/Webserver_MSS_CM3_0_hw_platform/Debug/CMSIS/startup_gcc/newlib_stubs.o
 .text._wait    0x00000000       0x24 C:/Users/kylebs/Desktop/FreeRTOS-lwIP-takeDeux/FreeRTOS-lwIP/Webserver_uIPRTOS_SC_DF/EVAL_KIT/SF_Webserver_Demo/SoftConsole/Webserver_MSS_CM3_0/Webserver_MSS_CM3_0_hw_platform/Debug/CMSIS/startup_gcc/newlib_stubs.o
 .text          0x00000000        0x0 C:\Users\kylebs\Desktop\FreeRTOS-lwIP-takeDeux\FreeRTOS-lwIP\Webserver_uIPRTOS_SC_DF\EVAL_KIT\SF_Webserver_Demo\SoftConsole\Webserver_MSS_CM3_0\Webserver_MSS_CM3_0_hw_platform\Debug\libWebserver_MSS_CM3_0_hw_platform.a(plotter_platform.o)
 .data          0x00000000        0x0 C:\Users\kylebs\Desktop\FreeRTOS-lwIP-takeDeux\FreeRTOS-lwIP\Webserver_uIPRTOS_SC_DF\EVAL_KIT\SF_Webserver_Demo\SoftConsole\Webserver_MSS_CM3_0\Webserver_MSS_CM3_0_hw_platform\Debug\libWebserver_MSS_CM3_0_hw_platform.a(plotter_platform.o)
 .bss           0x00000000        0x0 C:\Users\kylebs\Desktop\FreeRTOS-lwIP-takeDeux\FreeRTOS-lwIP\Webserver_uIPRTOS_SC_DF\EVAL_KIT\SF_Webserver_Demo\SoftConsole\Webserver_MSS_CM3_0\Webserver_MSS_CM3_0_hw_platform\Debug\libWebserver_MSS_CM3_0_hw_platform.a(plotter_platform.o)
 .text          0x00000000        0x0 C:\Users\kylebs\Desktop\FreeRTOS-lwIP-takeDeux\FreeRTOS-lwIP\Webserver_uIPRTOS_SC_DF\EVAL_KIT\SF_Webserver_Demo\SoftConsole\Webserver_MSS_CM3_0\Webserver_MSS_CM3_0_hw_platform\Debug\libWebserver_MSS_CM3_0_hw_platform.a(mss_uart.o)
 .data          0x00000000        0x0 C:\Users\kylebs\Desktop\FreeRTOS-lwIP-takeDeux\FreeRTOS-lwIP\Webserver_uIPRTOS_SC_DF\EVAL_KIT\SF_Webserver_Demo\SoftConsole\Webserver_MSS_CM3_0\Webserver_MSS_CM3_0_hw_platform\Debug\libWebserver_MSS_CM3_0_hw_platform.a(mss_uart.o)
 .bss           0x00000000        0x0 C:\Users\kylebs\Desktop\FreeRTOS-lwIP-takeDeux\FreeRTOS-lwIP\Webserver_uIPRTOS_SC_DF\EVAL_KIT\SF_Webserver_Demo\SoftConsole\Webserver_MSS_CM3_0\Webserver_MSS_CM3_0_hw_platform\Debug\libWebserver_MSS_CM3_0_hw_platform.a(mss_uart.o)
 .text.NVIC_EnableIRQ
                0x00000000       0x38 C:\Users\kylebs\Desktop\FreeRTOS-lwIP-takeDeux\FreeRTOS-lwIP\Webserver_uIPRTOS_SC_DF\EVAL_KIT\SF_Webserver_Demo\SoftConsole\Webserver_MSS_CM3_0\Webserver_MSS_CM3_0_hw_platform\Debug\libWebserver_MSS_CM3_0_hw_platform.a(mss_uart.o)
 .text.NVIC_DisableIRQ
                0x00000000       0x3c C:\Users\kylebs\Desktop\FreeRTOS-lwIP-takeDeux\FreeRTOS-lwIP\Webserver_uIPRTOS_SC_DF\EVAL_KIT\SF_Webserver_Demo\SoftConsole\Webserver_MSS_CM3_0\Webserver_MSS_CM3_0_hw_platform\Debug\libWebserver_MSS_CM3_0_hw_platform.a(mss_uart.o)
 .text.MSS_UART_polled_tx_string
                0x00000000       0xd0 C:\Users\kylebs\Desktop\FreeRTOS-lwIP-takeDeux\FreeRTOS-lwIP\Webserver_uIPRTOS_SC_DF\EVAL_KIT\SF_Webserver_Demo\SoftConsole\Webserver_MSS_CM3_0\Webserver_MSS_CM3_0_hw_platform\Debug\libWebserver_MSS_CM3_0_hw_platform.a(mss_uart.o)
 .text.MSS_UART_irq_tx
                0x00000000       0xb0 C:\Users\kylebs\Desktop\FreeRTOS-lwIP-takeDeux\FreeRTOS-lwIP\Webserver_uIPRTOS_SC_DF\EVAL_KIT\SF_Webserver_Demo\SoftConsole\Webserver_MSS_CM3_0\Webserver_MSS_CM3_0_hw_platform\Debug\libWebserver_MSS_CM3_0_hw_platform.a(mss_uart.o)
 .text.MSS_UART_tx_complete
                0x00000000       0x90 C:\Users\kylebs\Desktop\FreeRTOS-lwIP-takeDeux\FreeRTOS-lwIP\Webserver_uIPRTOS_SC_DF\EVAL_KIT\SF_Webserver_Demo\SoftConsole\Webserver_MSS_CM3_0\Webserver_MSS_CM3_0_hw_platform\Debug\libWebserver_MSS_CM3_0_hw_platform.a(mss_uart.o)
 .text.MSS_UART_get_rx
                0x00000000       0xdc C:\Users\kylebs\Desktop\FreeRTOS-lwIP-takeDeux\FreeRTOS-lwIP\Webserver_uIPRTOS_SC_DF\EVAL_KIT\SF_Webserver_Demo\SoftConsole\Webserver_MSS_CM3_0\Webserver_MSS_CM3_0_hw_platform\Debug\libWebserver_MSS_CM3_0_hw_platform.a(mss_uart.o)
 .text.MSS_UART_enable_irq
                0x00000000       0x7c C:\Users\kylebs\Desktop\FreeRTOS-lwIP-takeDeux\FreeRTOS-lwIP\Webserver_uIPRTOS_SC_DF\EVAL_KIT\SF_Webserver_Demo\SoftConsole\Webserver_MSS_CM3_0\Webserver_MSS_CM3_0_hw_platform\Debug\libWebserver_MSS_CM3_0_hw_platform.a(mss_uart.o)
 .text.MSS_UART_disable_irq
                0x00000000       0x88 C:\Users\kylebs\Desktop\FreeRTOS-lwIP-takeDeux\FreeRTOS-lwIP\Webserver_uIPRTOS_SC_DF\EVAL_KIT\SF_Webserver_Demo\SoftConsole\Webserver_MSS_CM3_0\Webserver_MSS_CM3_0_hw_platform\Debug\libWebserver_MSS_CM3_0_hw_platform.a(mss_uart.o)
 .text.MSS_UART_set_rx_handler
                0x00000000       0xa8 C:\Users\kylebs\Desktop\FreeRTOS-lwIP-takeDeux\FreeRTOS-lwIP\Webserver_uIPRTOS_SC_DF\EVAL_KIT\SF_Webserver_Demo\SoftConsole\Webserver_MSS_CM3_0\Webserver_MSS_CM3_0_hw_platform\Debug\libWebserver_MSS_CM3_0_hw_platform.a(mss_uart.o)
 .text.MSS_UART_set_loopback
                0x00000000       0x70 C:\Users\kylebs\Desktop\FreeRTOS-lwIP-takeDeux\FreeRTOS-lwIP\Webserver_uIPRTOS_SC_DF\EVAL_KIT\SF_Webserver_Demo\SoftConsole\Webserver_MSS_CM3_0\Webserver_MSS_CM3_0_hw_platform\Debug\libWebserver_MSS_CM3_0_hw_platform.a(mss_uart.o)
 .text.MSS_UART_set_rxstatus_handler
                0x00000000       0x84 C:\Users\kylebs\Desktop\FreeRTOS-lwIP-takeDeux\FreeRTOS-lwIP\Webserver_uIPRTOS_SC_DF\EVAL_KIT\SF_Webserver_Demo\SoftConsole\Webserver_MSS_CM3_0\Webserver_MSS_CM3_0_hw_platform\Debug\libWebserver_MSS_CM3_0_hw_platform.a(mss_uart.o)
 .text.MSS_UART_set_tx_handler
                0x00000000       0x94 C:\Users\kylebs\Desktop\FreeRTOS-lwIP-takeDeux\FreeRTOS-lwIP\Webserver_uIPRTOS_SC_DF\EVAL_KIT\SF_Webserver_Demo\SoftConsole\Webserver_MSS_CM3_0\Webserver_MSS_CM3_0_hw_platform\Debug\libWebserver_MSS_CM3_0_hw_platform.a(mss_uart.o)
 .text.MSS_UART_set_modemstatus_handler
                0x00000000       0x84 C:\Users\kylebs\Desktop\FreeRTOS-lwIP-takeDeux\FreeRTOS-lwIP\Webserver_uIPRTOS_SC_DF\EVAL_KIT\SF_Webserver_Demo\SoftConsole\Webserver_MSS_CM3_0\Webserver_MSS_CM3_0_hw_platform\Debug\libWebserver_MSS_CM3_0_hw_platform.a(mss_uart.o)
 .text.MSS_UART_fill_tx_fifo
                0x00000000       0xd4 C:\Users\kylebs\Desktop\FreeRTOS-lwIP-takeDeux\FreeRTOS-lwIP\Webserver_uIPRTOS_SC_DF\EVAL_KIT\SF_Webserver_Demo\SoftConsole\Webserver_MSS_CM3_0\Webserver_MSS_CM3_0_hw_platform\Debug\libWebserver_MSS_CM3_0_hw_platform.a(mss_uart.o)
 .text.MSS_UART_get_rx_status
                0x00000000       0x80 C:\Users\kylebs\Desktop\FreeRTOS-lwIP-takeDeux\FreeRTOS-lwIP\Webserver_uIPRTOS_SC_DF\EVAL_KIT\SF_Webserver_Demo\SoftConsole\Webserver_MSS_CM3_0\Webserver_MSS_CM3_0_hw_platform\Debug\libWebserver_MSS_CM3_0_hw_platform.a(mss_uart.o)
 .text.MSS_UART_get_modem_status
                0x00000000       0x60 C:\Users\kylebs\Desktop\FreeRTOS-lwIP-takeDeux\FreeRTOS-lwIP\Webserver_uIPRTOS_SC_DF\EVAL_KIT\SF_Webserver_Demo\SoftConsole\Webserver_MSS_CM3_0\Webserver_MSS_CM3_0_hw_platform\Debug\libWebserver_MSS_CM3_0_hw_platform.a(mss_uart.o)
 .text.MSS_UART_get_tx_status
                0x00000000       0x78 C:\Users\kylebs\Desktop\FreeRTOS-lwIP-takeDeux\FreeRTOS-lwIP\Webserver_uIPRTOS_SC_DF\EVAL_KIT\SF_Webserver_Demo\SoftConsole\Webserver_MSS_CM3_0\Webserver_MSS_CM3_0_hw_platform\Debug\libWebserver_MSS_CM3_0_hw_platform.a(mss_uart.o)
 .text          0x00000000        0x0 C:\Users\kylebs\Desktop\FreeRTOS-lwIP-takeDeux\FreeRTOS-lwIP\Webserver_uIPRTOS_SC_DF\EVAL_KIT\SF_Webserver_Demo\SoftConsole\Webserver_MSS_CM3_0\Webserver_MSS_CM3_0_hw_platform\Debug\libWebserver_MSS_CM3_0_hw_platform.a(mss_spi.o)
 .data          0x00000000        0x0 C:\Users\kylebs\Desktop\FreeRTOS-lwIP-takeDeux\FreeRTOS-lwIP\Webserver_uIPRTOS_SC_DF\EVAL_KIT\SF_Webserver_Demo\SoftConsole\Webserver_MSS_CM3_0\Webserver_MSS_CM3_0_hw_platform\Debug\libWebserver_MSS_CM3_0_hw_platform.a(mss_spi.o)
 .bss           0x00000000        0x0 C:\Users\kylebs\Desktop\FreeRTOS-lwIP-takeDeux\FreeRTOS-lwIP\Webserver_uIPRTOS_SC_DF\EVAL_KIT\SF_Webserver_Demo\SoftConsole\Webserver_MSS_CM3_0\Webserver_MSS_CM3_0_hw_platform\Debug\libWebserver_MSS_CM3_0_hw_platform.a(mss_spi.o)
 .text.NVIC_EnableIRQ
                0x00000000       0x38 C:\Users\kylebs\Desktop\FreeRTOS-lwIP-takeDeux\FreeRTOS-lwIP\Webserver_uIPRTOS_SC_DF\EVAL_KIT\SF_Webserver_Demo\SoftConsole\Webserver_MSS_CM3_0\Webserver_MSS_CM3_0_hw_platform\Debug\libWebserver_MSS_CM3_0_hw_platform.a(mss_spi.o)
 .text.MSS_SPI_init
                0x00000000      0x174 C:\Users\kylebs\Desktop\FreeRTOS-lwIP-takeDeux\FreeRTOS-lwIP\Webserver_uIPRTOS_SC_DF\EVAL_KIT\SF_Webserver_Demo\SoftConsole\Webserver_MSS_CM3_0\Webserver_MSS_CM3_0_hw_platform\Debug\libWebserver_MSS_CM3_0_hw_platform.a(mss_spi.o)
 .text.recover_from_rx_overflow
                0x00000000      0x168 C:\Users\kylebs\Desktop\FreeRTOS-lwIP-takeDeux\FreeRTOS-lwIP\Webserver_uIPRTOS_SC_DF\EVAL_KIT\SF_Webserver_Demo\SoftConsole\Webserver_MSS_CM3_0\Webserver_MSS_CM3_0_hw_platform\Debug\libWebserver_MSS_CM3_0_hw_platform.a(mss_spi.o)
 .text.MSS_SPI_configure_slave_mode
                0x00000000       0xc0 C:\Users\kylebs\Desktop\FreeRTOS-lwIP-takeDeux\FreeRTOS-lwIP\Webserver_uIPRTOS_SC_DF\EVAL_KIT\SF_Webserver_Demo\SoftConsole\Webserver_MSS_CM3_0\Webserver_MSS_CM3_0_hw_platform\Debug\libWebserver_MSS_CM3_0_hw_platform.a(mss_spi.o)
 .text.MSS_SPI_configure_master_mode
                0x00000000       0xbc C:\Users\kylebs\Desktop\FreeRTOS-lwIP-takeDeux\FreeRTOS-lwIP\Webserver_uIPRTOS_SC_DF\EVAL_KIT\SF_Webserver_Demo\SoftConsole\Webserver_MSS_CM3_0\Webserver_MSS_CM3_0_hw_platform\Debug\libWebserver_MSS_CM3_0_hw_platform.a(mss_spi.o)
 .text.MSS_SPI_set_slave_select
                0x00000000       0xe8 C:\Users\kylebs\Desktop\FreeRTOS-lwIP-takeDeux\FreeRTOS-lwIP\Webserver_uIPRTOS_SC_DF\EVAL_KIT\SF_Webserver_Demo\SoftConsole\Webserver_MSS_CM3_0\Webserver_MSS_CM3_0_hw_platform\Debug\libWebserver_MSS_CM3_0_hw_platform.a(mss_spi.o)
 .text.MSS_SPI_clear_slave_select
                0x00000000       0x78 C:\Users\kylebs\Desktop\FreeRTOS-lwIP-takeDeux\FreeRTOS-lwIP\Webserver_uIPRTOS_SC_DF\EVAL_KIT\SF_Webserver_Demo\SoftConsole\Webserver_MSS_CM3_0\Webserver_MSS_CM3_0_hw_platform\Debug\libWebserver_MSS_CM3_0_hw_platform.a(mss_spi.o)
 .text.MSS_SPI_transfer_frame
                0x00000000       0xd0 C:\Users\kylebs\Desktop\FreeRTOS-lwIP-takeDeux\FreeRTOS-lwIP\Webserver_uIPRTOS_SC_DF\EVAL_KIT\SF_Webserver_Demo\SoftConsole\Webserver_MSS_CM3_0\Webserver_MSS_CM3_0_hw_platform\Debug\libWebserver_MSS_CM3_0_hw_platform.a(mss_spi.o)
 .text.MSS_SPI_transfer_block
                0x00000000      0x228 C:\Users\kylebs\Desktop\FreeRTOS-lwIP-takeDeux\FreeRTOS-lwIP\Webserver_uIPRTOS_SC_DF\EVAL_KIT\SF_Webserver_Demo\SoftConsole\Webserver_MSS_CM3_0\Webserver_MSS_CM3_0_hw_platform\Debug\libWebserver_MSS_CM3_0_hw_platform.a(mss_spi.o)
 .text.MSS_SPI_set_frame_rx_handler
                0x00000000       0x8c C:\Users\kylebs\Desktop\FreeRTOS-lwIP-takeDeux\FreeRTOS-lwIP\Webserver_uIPRTOS_SC_DF\EVAL_KIT\SF_Webserver_Demo\SoftConsole\Webserver_MSS_CM3_0\Webserver_MSS_CM3_0_hw_platform\Debug\libWebserver_MSS_CM3_0_hw_platform.a(mss_spi.o)
 .text.MSS_SPI_set_slave_tx_frame
                0x00000000       0xa4 C:\Users\kylebs\Desktop\FreeRTOS-lwIP-takeDeux\FreeRTOS-lwIP\Webserver_uIPRTOS_SC_DF\EVAL_KIT\SF_Webserver_Demo\SoftConsole\Webserver_MSS_CM3_0\Webserver_MSS_CM3_0_hw_platform\Debug\libWebserver_MSS_CM3_0_hw_platform.a(mss_spi.o)
 .text.MSS_SPI_set_slave_block_buffers
                0x00000000      0x17c C:\Users\kylebs\Desktop\FreeRTOS-lwIP-takeDeux\FreeRTOS-lwIP\Webserver_uIPRTOS_SC_DF\EVAL_KIT\SF_Webserver_Demo\SoftConsole\Webserver_MSS_CM3_0\Webserver_MSS_CM3_0_hw_platform\Debug\libWebserver_MSS_CM3_0_hw_platform.a(mss_spi.o)
 .text.MSS_SPI_set_cmd_handler
                0x00000000       0x34 C:\Users\kylebs\Desktop\FreeRTOS-lwIP-takeDeux\FreeRTOS-lwIP\Webserver_uIPRTOS_SC_DF\EVAL_KIT\SF_Webserver_Demo\SoftConsole\Webserver_MSS_CM3_0\Webserver_MSS_CM3_0_hw_platform\Debug\libWebserver_MSS_CM3_0_hw_platform.a(mss_spi.o)
 .text.MSS_SPI_set_cmd_response
                0x00000000       0x30 C:\Users\kylebs\Desktop\FreeRTOS-lwIP-takeDeux\FreeRTOS-lwIP\Webserver_uIPRTOS_SC_DF\EVAL_KIT\SF_Webserver_Demo\SoftConsole\Webserver_MSS_CM3_0\Webserver_MSS_CM3_0_hw_platform\Debug\libWebserver_MSS_CM3_0_hw_platform.a(mss_spi.o)
 .text.MSS_SPI_enable
                0x00000000       0x24 C:\Users\kylebs\Desktop\FreeRTOS-lwIP-takeDeux\FreeRTOS-lwIP\Webserver_uIPRTOS_SC_DF\EVAL_KIT\SF_Webserver_Demo\SoftConsole\Webserver_MSS_CM3_0\Webserver_MSS_CM3_0_hw_platform\Debug\libWebserver_MSS_CM3_0_hw_platform.a(mss_spi.o)
 .text.MSS_SPI_disable
                0x00000000       0x24 C:\Users\kylebs\Desktop\FreeRTOS-lwIP-takeDeux\FreeRTOS-lwIP\Webserver_uIPRTOS_SC_DF\EVAL_KIT\SF_Webserver_Demo\SoftConsole\Webserver_MSS_CM3_0\Webserver_MSS_CM3_0_hw_platform\Debug\libWebserver_MSS_CM3_0_hw_platform.a(mss_spi.o)
 .text.MSS_SPI_set_transfer_byte_count
                0x00000000       0x50 C:\Users\kylebs\Desktop\FreeRTOS-lwIP-takeDeux\FreeRTOS-lwIP\Webserver_uIPRTOS_SC_DF\EVAL_KIT\SF_Webserver_Demo\SoftConsole\Webserver_MSS_CM3_0\Webserver_MSS_CM3_0_hw_platform\Debug\libWebserver_MSS_CM3_0_hw_platform.a(mss_spi.o)
 .text.MSS_SPI_tx_done
                0x00000000       0x24 C:\Users\kylebs\Desktop\FreeRTOS-lwIP-takeDeux\FreeRTOS-lwIP\Webserver_uIPRTOS_SC_DF\EVAL_KIT\SF_Webserver_Demo\SoftConsole\Webserver_MSS_CM3_0\Webserver_MSS_CM3_0_hw_platform\Debug\libWebserver_MSS_CM3_0_hw_platform.a(mss_spi.o)
 .text          0x00000000        0x0 C:\Users\kylebs\Desktop\FreeRTOS-lwIP-takeDeux\FreeRTOS-lwIP\Webserver_uIPRTOS_SC_DF\EVAL_KIT\SF_Webserver_Demo\SoftConsole\Webserver_MSS_CM3_0\Webserver_MSS_CM3_0_hw_platform\Debug\libWebserver_MSS_CM3_0_hw_platform.a(mss_pdma.o)
 .data          0x00000000        0x0 C:\Users\kylebs\Desktop\FreeRTOS-lwIP-takeDeux\FreeRTOS-lwIP\Webserver_uIPRTOS_SC_DF\EVAL_KIT\SF_Webserver_Demo\SoftConsole\Webserver_MSS_CM3_0\Webserver_MSS_CM3_0_hw_platform\Debug\libWebserver_MSS_CM3_0_hw_platform.a(mss_pdma.o)
 .bss           0x00000000        0x0 C:\Users\kylebs\Desktop\FreeRTOS-lwIP-takeDeux\FreeRTOS-lwIP\Webserver_uIPRTOS_SC_DF\EVAL_KIT\SF_Webserver_Demo\SoftConsole\Webserver_MSS_CM3_0\Webserver_MSS_CM3_0_hw_platform\Debug\libWebserver_MSS_CM3_0_hw_platform.a(mss_pdma.o)
 .text.NVIC_EnableIRQ
                0x00000000       0x38 C:\Users\kylebs\Desktop\FreeRTOS-lwIP-takeDeux\FreeRTOS-lwIP\Webserver_uIPRTOS_SC_DF\EVAL_KIT\SF_Webserver_Demo\SoftConsole\Webserver_MSS_CM3_0\Webserver_MSS_CM3_0_hw_platform\Debug\libWebserver_MSS_CM3_0_hw_platform.a(mss_pdma.o)
 .rodata.src_dest_to_ctrl_reg_lut
                0x00000000       0x38 C:\Users\kylebs\Desktop\FreeRTOS-lwIP-takeDeux\FreeRTOS-lwIP\Webserver_uIPRTOS_SC_DF\EVAL_KIT\SF_Webserver_Demo\SoftConsole\Webserver_MSS_CM3_0\Webserver_MSS_CM3_0_hw_platform\Debug\libWebserver_MSS_CM3_0_hw_platform.a(mss_pdma.o)
 .bss.g_pdma_next_channel
                0x00000000        0x8 C:\Users\kylebs\Desktop\FreeRTOS-lwIP-takeDeux\FreeRTOS-lwIP\Webserver_uIPRTOS_SC_DF\EVAL_KIT\SF_Webserver_Demo\SoftConsole\Webserver_MSS_CM3_0\Webserver_MSS_CM3_0_hw_platform\Debug\libWebserver_MSS_CM3_0_hw_platform.a(mss_pdma.o)
 .bss.g_pdma_started_a
                0x00000000        0x8 C:\Users\kylebs\Desktop\FreeRTOS-lwIP-takeDeux\FreeRTOS-lwIP\Webserver_uIPRTOS_SC_DF\EVAL_KIT\SF_Webserver_Demo\SoftConsole\Webserver_MSS_CM3_0\Webserver_MSS_CM3_0_hw_platform\Debug\libWebserver_MSS_CM3_0_hw_platform.a(mss_pdma.o)
 .bss.g_pdma_started_b
                0x00000000        0x8 C:\Users\kylebs\Desktop\FreeRTOS-lwIP-takeDeux\FreeRTOS-lwIP\Webserver_uIPRTOS_SC_DF\EVAL_KIT\SF_Webserver_Demo\SoftConsole\Webserver_MSS_CM3_0\Webserver_MSS_CM3_0_hw_platform\Debug\libWebserver_MSS_CM3_0_hw_platform.a(mss_pdma.o)
 .text.PDMA_init
                0x00000000       0xb8 C:\Users\kylebs\Desktop\FreeRTOS-lwIP-takeDeux\FreeRTOS-lwIP\Webserver_uIPRTOS_SC_DF\EVAL_KIT\SF_Webserver_Demo\SoftConsole\Webserver_MSS_CM3_0\Webserver_MSS_CM3_0_hw_platform\Debug\libWebserver_MSS_CM3_0_hw_platform.a(mss_pdma.o)
 .text.PDMA_configure
                0x00000000      0x12c C:\Users\kylebs\Desktop\FreeRTOS-lwIP-takeDeux\FreeRTOS-lwIP\Webserver_uIPRTOS_SC_DF\EVAL_KIT\SF_Webserver_Demo\SoftConsole\Webserver_MSS_CM3_0\Webserver_MSS_CM3_0_hw_platform\Debug\libWebserver_MSS_CM3_0_hw_platform.a(mss_pdma.o)
 .text.PDMA_start
                0x00000000      0x234 C:\Users\kylebs\Desktop\FreeRTOS-lwIP-takeDeux\FreeRTOS-lwIP\Webserver_uIPRTOS_SC_DF\EVAL_KIT\SF_Webserver_Demo\SoftConsole\Webserver_MSS_CM3_0\Webserver_MSS_CM3_0_hw_platform\Debug\libWebserver_MSS_CM3_0_hw_platform.a(mss_pdma.o)
 .text.PDMA_load_next_buffer
                0x00000000      0x1d0 C:\Users\kylebs\Desktop\FreeRTOS-lwIP-takeDeux\FreeRTOS-lwIP\Webserver_uIPRTOS_SC_DF\EVAL_KIT\SF_Webserver_Demo\SoftConsole\Webserver_MSS_CM3_0\Webserver_MSS_CM3_0_hw_platform\Debug\libWebserver_MSS_CM3_0_hw_platform.a(mss_pdma.o)
 .text.PDMA_status
                0x00000000       0x38 C:\Users\kylebs\Desktop\FreeRTOS-lwIP-takeDeux\FreeRTOS-lwIP\Webserver_uIPRTOS_SC_DF\EVAL_KIT\SF_Webserver_Demo\SoftConsole\Webserver_MSS_CM3_0\Webserver_MSS_CM3_0_hw_platform\Debug\libWebserver_MSS_CM3_0_hw_platform.a(mss_pdma.o)
 .text.PDMA_set_irq_handler
                0x00000000       0x5c C:\Users\kylebs\Desktop\FreeRTOS-lwIP-takeDeux\FreeRTOS-lwIP\Webserver_uIPRTOS_SC_DF\EVAL_KIT\SF_Webserver_Demo\SoftConsole\Webserver_MSS_CM3_0\Webserver_MSS_CM3_0_hw_platform\Debug\libWebserver_MSS_CM3_0_hw_platform.a(mss_pdma.o)
 .text.PDMA_enable_irq
                0x00000000       0x4c C:\Users\kylebs\Desktop\FreeRTOS-lwIP-takeDeux\FreeRTOS-lwIP\Webserver_uIPRTOS_SC_DF\EVAL_KIT\SF_Webserver_Demo\SoftConsole\Webserver_MSS_CM3_0\Webserver_MSS_CM3_0_hw_platform\Debug\libWebserver_MSS_CM3_0_hw_platform.a(mss_pdma.o)
 .text.PDMA_clear_irq
                0x00000000       0x7c C:\Users\kylebs\Desktop\FreeRTOS-lwIP-takeDeux\FreeRTOS-lwIP\Webserver_uIPRTOS_SC_DF\EVAL_KIT\SF_Webserver_Demo\SoftConsole\Webserver_MSS_CM3_0\Webserver_MSS_CM3_0_hw_platform\Debug\libWebserver_MSS_CM3_0_hw_platform.a(mss_pdma.o)
 .text          0x00000000        0x0 C:\Users\kylebs\Desktop\FreeRTOS-lwIP-takeDeux\FreeRTOS-lwIP\Webserver_uIPRTOS_SC_DF\EVAL_KIT\SF_Webserver_Demo\SoftConsole\Webserver_MSS_CM3_0\Webserver_MSS_CM3_0_hw_platform\Debug\libWebserver_MSS_CM3_0_hw_platform.a(mss_gpio.o)
 .data          0x00000000        0x0 C:\Users\kylebs\Desktop\FreeRTOS-lwIP-takeDeux\FreeRTOS-lwIP\Webserver_uIPRTOS_SC_DF\EVAL_KIT\SF_Webserver_Demo\SoftConsole\Webserver_MSS_CM3_0\Webserver_MSS_CM3_0_hw_platform\Debug\libWebserver_MSS_CM3_0_hw_platform.a(mss_gpio.o)
 .bss           0x00000000        0x0 C:\Users\kylebs\Desktop\FreeRTOS-lwIP-takeDeux\FreeRTOS-lwIP\Webserver_uIPRTOS_SC_DF\EVAL_KIT\SF_Webserver_Demo\SoftConsole\Webserver_MSS_CM3_0\Webserver_MSS_CM3_0_hw_platform\Debug\libWebserver_MSS_CM3_0_hw_platform.a(mss_gpio.o)
 .text.MSS_GPIO_set_output
                0x00000000       0x40 C:\Users\kylebs\Desktop\FreeRTOS-lwIP-takeDeux\FreeRTOS-lwIP\Webserver_uIPRTOS_SC_DF\EVAL_KIT\SF_Webserver_Demo\SoftConsole\Webserver_MSS_CM3_0\Webserver_MSS_CM3_0_hw_platform\Debug\libWebserver_MSS_CM3_0_hw_platform.a(mss_gpio.o)
 .text.MSS_GPIO_drive_inout
                0x00000000      0x128 C:\Users\kylebs\Desktop\FreeRTOS-lwIP-takeDeux\FreeRTOS-lwIP\Webserver_uIPRTOS_SC_DF\EVAL_KIT\SF_Webserver_Demo\SoftConsole\Webserver_MSS_CM3_0\Webserver_MSS_CM3_0_hw_platform\Debug\libWebserver_MSS_CM3_0_hw_platform.a(mss_gpio.o)
 .text          0x00000000        0x0 C:\Users\kylebs\Desktop\FreeRTOS-lwIP-takeDeux\FreeRTOS-lwIP\Webserver_uIPRTOS_SC_DF\EVAL_KIT\SF_Webserver_Demo\SoftConsole\Webserver_MSS_CM3_0\Webserver_MSS_CM3_0_hw_platform\Debug\libWebserver_MSS_CM3_0_hw_platform.a(mss_ethernet_mac.o)
 .data          0x00000000        0x0 C:\Users\kylebs\Desktop\FreeRTOS-lwIP-takeDeux\FreeRTOS-lwIP\Webserver_uIPRTOS_SC_DF\EVAL_KIT\SF_Webserver_Demo\SoftConsole\Webserver_MSS_CM3_0\Webserver_MSS_CM3_0_hw_platform\Debug\libWebserver_MSS_CM3_0_hw_platform.a(mss_ethernet_mac.o)
 .bss           0x00000000        0x0 C:\Users\kylebs\Desktop\FreeRTOS-lwIP-takeDeux\FreeRTOS-lwIP\Webserver_uIPRTOS_SC_DF\EVAL_KIT\SF_Webserver_Demo\SoftConsole\Webserver_MSS_CM3_0\Webserver_MSS_CM3_0_hw_platform\Debug\libWebserver_MSS_CM3_0_hw_platform.a(mss_ethernet_mac.o)
 .rodata.unknown_error
                0x00000000       0x10 C:\Users\kylebs\Desktop\FreeRTOS-lwIP-takeDeux\FreeRTOS-lwIP\Webserver_uIPRTOS_SC_DF\EVAL_KIT\SF_Webserver_Demo\SoftConsole\Webserver_MSS_CM3_0\Webserver_MSS_CM3_0_hw_platform\Debug\libWebserver_MSS_CM3_0_hw_platform.a(mss_ethernet_mac.o)
 .rodata.ErrorMessages
                0x00000000      0x140 C:\Users\kylebs\Desktop\FreeRTOS-lwIP-takeDeux\FreeRTOS-lwIP\Webserver_uIPRTOS_SC_DF\EVAL_KIT\SF_Webserver_Demo\SoftConsole\Webserver_MSS_CM3_0\Webserver_MSS_CM3_0_hw_platform\Debug\libWebserver_MSS_CM3_0_hw_platform.a(mss_ethernet_mac.o)
 .text.MSS_MAC_rx_packet_ptrset
                0x00000000      0x124 C:\Users\kylebs\Desktop\FreeRTOS-lwIP-takeDeux\FreeRTOS-lwIP\Webserver_uIPRTOS_SC_DF\EVAL_KIT\SF_Webserver_Demo\SoftConsole\Webserver_MSS_CM3_0\Webserver_MSS_CM3_0_hw_platform\Debug\libWebserver_MSS_CM3_0_hw_platform.a(mss_ethernet_mac.o)
 .text.MSS_MAC_get_mac_address
                0x00000000       0x2c C:\Users\kylebs\Desktop\FreeRTOS-lwIP-takeDeux\FreeRTOS-lwIP\Webserver_uIPRTOS_SC_DF\EVAL_KIT\SF_Webserver_Demo\SoftConsole\Webserver_MSS_CM3_0\Webserver_MSS_CM3_0_hw_platform\Debug\libWebserver_MSS_CM3_0_hw_platform.a(mss_ethernet_mac.o)
 .text.MSS_MAC_set_callback
                0x00000000       0x78 C:\Users\kylebs\Desktop\FreeRTOS-lwIP-takeDeux\FreeRTOS-lwIP\Webserver_uIPRTOS_SC_DF\EVAL_KIT\SF_Webserver_Demo\SoftConsole\Webserver_MSS_CM3_0\Webserver_MSS_CM3_0_hw_platform\Debug\libWebserver_MSS_CM3_0_hw_platform.a(mss_ethernet_mac.o)
 .text.MSS_MAC_last_error
                0x00000000       0x60 C:\Users\kylebs\Desktop\FreeRTOS-lwIP-takeDeux\FreeRTOS-lwIP\Webserver_uIPRTOS_SC_DF\EVAL_KIT\SF_Webserver_Demo\SoftConsole\Webserver_MSS_CM3_0\Webserver_MSS_CM3_0_hw_platform\Debug\libWebserver_MSS_CM3_0_hw_platform.a(mss_ethernet_mac.o)
 .text.MSS_MAC_get_statistics
                0x00000000      0x208 C:\Users\kylebs\Desktop\FreeRTOS-lwIP-takeDeux\FreeRTOS-lwIP\Webserver_uIPRTOS_SC_DF\EVAL_KIT\SF_Webserver_Demo\SoftConsole\Webserver_MSS_CM3_0\Webserver_MSS_CM3_0_hw_platform\Debug\libWebserver_MSS_CM3_0_hw_platform.a(mss_ethernet_mac.o)
 .text          0x00000000        0x0 C:\Users\kylebs\Desktop\FreeRTOS-lwIP-takeDeux\FreeRTOS-lwIP\Webserver_uIPRTOS_SC_DF\EVAL_KIT\SF_Webserver_Demo\SoftConsole\Webserver_MSS_CM3_0\Webserver_MSS_CM3_0_hw_platform\Debug\libWebserver_MSS_CM3_0_hw_platform.a(phy.o)
 .data          0x00000000        0x0 C:\Users\kylebs\Desktop\FreeRTOS-lwIP-takeDeux\FreeRTOS-lwIP\Webserver_uIPRTOS_SC_DF\EVAL_KIT\SF_Webserver_Demo\SoftConsole\Webserver_MSS_CM3_0\Webserver_MSS_CM3_0_hw_platform\Debug\libWebserver_MSS_CM3_0_hw_platform.a(phy.o)
 .bss           0x00000000        0x0 C:\Users\kylebs\Desktop\FreeRTOS-lwIP-takeDeux\FreeRTOS-lwIP\Webserver_uIPRTOS_SC_DF\EVAL_KIT\SF_Webserver_Demo\SoftConsole\Webserver_MSS_CM3_0\Webserver_MSS_CM3_0_hw_platform\Debug\libWebserver_MSS_CM3_0_hw_platform.a(phy.o)
 .text.PHY_set_loopback
                0x00000000       0x58 C:\Users\kylebs\Desktop\FreeRTOS-lwIP-takeDeux\FreeRTOS-lwIP\Webserver_uIPRTOS_SC_DF\EVAL_KIT\SF_Webserver_Demo\SoftConsole\Webserver_MSS_CM3_0\Webserver_MSS_CM3_0_hw_platform\Debug\libWebserver_MSS_CM3_0_hw_platform.a(phy.o)
 .text          0x00000000        0x0 C:\Users\kylebs\Desktop\FreeRTOS-lwIP-takeDeux\FreeRTOS-lwIP\Webserver_uIPRTOS_SC_DF\EVAL_KIT\SF_Webserver_Demo\SoftConsole\Webserver_MSS_CM3_0\Webserver_MSS_CM3_0_hw_platform\Debug\libWebserver_MSS_CM3_0_hw_platform.a(core_uart_apb.o)
 .data          0x00000000        0x0 C:\Users\kylebs\Desktop\FreeRTOS-lwIP-takeDeux\FreeRTOS-lwIP\Webserver_uIPRTOS_SC_DF\EVAL_KIT\SF_Webserver_Demo\SoftConsole\Webserver_MSS_CM3_0\Webserver_MSS_CM3_0_hw_platform\Debug\libWebserver_MSS_CM3_0_hw_platform.a(core_uart_apb.o)
 .bss           0x00000000        0x0 C:\Users\kylebs\Desktop\FreeRTOS-lwIP-takeDeux\FreeRTOS-lwIP\Webserver_uIPRTOS_SC_DF\EVAL_KIT\SF_Webserver_Demo\SoftConsole\Webserver_MSS_CM3_0\Webserver_MSS_CM3_0_hw_platform\Debug\libWebserver_MSS_CM3_0_hw_platform.a(core_uart_apb.o)
 .text.UART_fill_tx_fifo
                0x00000000      0x180 C:\Users\kylebs\Desktop\FreeRTOS-lwIP-takeDeux\FreeRTOS-lwIP\Webserver_uIPRTOS_SC_DF\EVAL_KIT\SF_Webserver_Demo\SoftConsole\Webserver_MSS_CM3_0\Webserver_MSS_CM3_0_hw_platform\Debug\libWebserver_MSS_CM3_0_hw_platform.a(core_uart_apb.o)
 .text.UART_polled_tx_string
                0x00000000      0x10c C:\Users\kylebs\Desktop\FreeRTOS-lwIP-takeDeux\FreeRTOS-lwIP\Webserver_uIPRTOS_SC_DF\EVAL_KIT\SF_Webserver_Demo\SoftConsole\Webserver_MSS_CM3_0\Webserver_MSS_CM3_0_hw_platform\Debug\libWebserver_MSS_CM3_0_hw_platform.a(core_uart_apb.o)
 .text.UART_get_rx_status
                0x00000000       0x8c C:\Users\kylebs\Desktop\FreeRTOS-lwIP-takeDeux\FreeRTOS-lwIP\Webserver_uIPRTOS_SC_DF\EVAL_KIT\SF_Webserver_Demo\SoftConsole\Webserver_MSS_CM3_0\Webserver_MSS_CM3_0_hw_platform\Debug\libWebserver_MSS_CM3_0_hw_platform.a(core_uart_apb.o)
 .text          0x00000000        0x0 C:\Users\kylebs\Desktop\FreeRTOS-lwIP-takeDeux\FreeRTOS-lwIP\Webserver_uIPRTOS_SC_DF\EVAL_KIT\SF_Webserver_Demo\SoftConsole\Webserver_MSS_CM3_0\Webserver_MSS_CM3_0_hw_platform\Debug\libWebserver_MSS_CM3_0_hw_platform.a(core_cm3.o)
 .data          0x00000000        0x0 C:\Users\kylebs\Desktop\FreeRTOS-lwIP-takeDeux\FreeRTOS-lwIP\Webserver_uIPRTOS_SC_DF\EVAL_KIT\SF_Webserver_Demo\SoftConsole\Webserver_MSS_CM3_0\Webserver_MSS_CM3_0_hw_platform\Debug\libWebserver_MSS_CM3_0_hw_platform.a(core_cm3.o)
 .bss           0x00000000        0x0 C:\Users\kylebs\Desktop\FreeRTOS-lwIP-takeDeux\FreeRTOS-lwIP\Webserver_uIPRTOS_SC_DF\EVAL_KIT\SF_Webserver_Demo\SoftConsole\Webserver_MSS_CM3_0\Webserver_MSS_CM3_0_hw_platform\Debug\libWebserver_MSS_CM3_0_hw_platform.a(core_cm3.o)
 .text.__get_PSP
                0x00000000       0x10 C:\Users\kylebs\Desktop\FreeRTOS-lwIP-takeDeux\FreeRTOS-lwIP\Webserver_uIPRTOS_SC_DF\EVAL_KIT\SF_Webserver_Demo\SoftConsole\Webserver_MSS_CM3_0\Webserver_MSS_CM3_0_hw_platform\Debug\libWebserver_MSS_CM3_0_hw_platform.a(core_cm3.o)
 .text.__set_PSP
                0x00000000        0x8 C:\Users\kylebs\Desktop\FreeRTOS-lwIP-takeDeux\FreeRTOS-lwIP\Webserver_uIPRTOS_SC_DF\EVAL_KIT\SF_Webserver_Demo\SoftConsole\Webserver_MSS_CM3_0\Webserver_MSS_CM3_0_hw_platform\Debug\libWebserver_MSS_CM3_0_hw_platform.a(core_cm3.o)
 .text.__get_MSP
                0x00000000       0x10 C:\Users\kylebs\Desktop\FreeRTOS-lwIP-takeDeux\FreeRTOS-lwIP\Webserver_uIPRTOS_SC_DF\EVAL_KIT\SF_Webserver_Demo\SoftConsole\Webserver_MSS_CM3_0\Webserver_MSS_CM3_0_hw_platform\Debug\libWebserver_MSS_CM3_0_hw_platform.a(core_cm3.o)
 .text.__set_MSP
                0x00000000        0x8 C:\Users\kylebs\Desktop\FreeRTOS-lwIP-takeDeux\FreeRTOS-lwIP\Webserver_uIPRTOS_SC_DF\EVAL_KIT\SF_Webserver_Demo\SoftConsole\Webserver_MSS_CM3_0\Webserver_MSS_CM3_0_hw_platform\Debug\libWebserver_MSS_CM3_0_hw_platform.a(core_cm3.o)
 .text.__get_BASEPRI
                0x00000000       0x20 C:\Users\kylebs\Desktop\FreeRTOS-lwIP-takeDeux\FreeRTOS-lwIP\Webserver_uIPRTOS_SC_DF\EVAL_KIT\SF_Webserver_Demo\SoftConsole\Webserver_MSS_CM3_0\Webserver_MSS_CM3_0_hw_platform\Debug\libWebserver_MSS_CM3_0_hw_platform.a(core_cm3.o)
 .text.__set_BASEPRI
                0x00000000       0x18 C:\Users\kylebs\Desktop\FreeRTOS-lwIP-takeDeux\FreeRTOS-lwIP\Webserver_uIPRTOS_SC_DF\EVAL_KIT\SF_Webserver_Demo\SoftConsole\Webserver_MSS_CM3_0\Webserver_MSS_CM3_0_hw_platform\Debug\libWebserver_MSS_CM3_0_hw_platform.a(core_cm3.o)
 .text.__get_FAULTMASK
                0x00000000       0x20 C:\Users\kylebs\Desktop\FreeRTOS-lwIP-takeDeux\FreeRTOS-lwIP\Webserver_uIPRTOS_SC_DF\EVAL_KIT\SF_Webserver_Demo\SoftConsole\Webserver_MSS_CM3_0\Webserver_MSS_CM3_0_hw_platform\Debug\libWebserver_MSS_CM3_0_hw_platform.a(core_cm3.o)
 .text.__set_FAULTMASK
                0x00000000       0x18 C:\Users\kylebs\Desktop\FreeRTOS-lwIP-takeDeux\FreeRTOS-lwIP\Webserver_uIPRTOS_SC_DF\EVAL_KIT\SF_Webserver_Demo\SoftConsole\Webserver_MSS_CM3_0\Webserver_MSS_CM3_0_hw_platform\Debug\libWebserver_MSS_CM3_0_hw_platform.a(core_cm3.o)
 .text.__get_CONTROL
                0x00000000       0x20 C:\Users\kylebs\Desktop\FreeRTOS-lwIP-takeDeux\FreeRTOS-lwIP\Webserver_uIPRTOS_SC_DF\EVAL_KIT\SF_Webserver_Demo\SoftConsole\Webserver_MSS_CM3_0\Webserver_MSS_CM3_0_hw_platform\Debug\libWebserver_MSS_CM3_0_hw_platform.a(core_cm3.o)
 .text.__set_CONTROL
                0x00000000       0x18 C:\Users\kylebs\Desktop\FreeRTOS-lwIP-takeDeux\FreeRTOS-lwIP\Webserver_uIPRTOS_SC_DF\EVAL_KIT\SF_Webserver_Demo\SoftConsole\Webserver_MSS_CM3_0\Webserver_MSS_CM3_0_hw_platform\Debug\libWebserver_MSS_CM3_0_hw_platform.a(core_cm3.o)
 .text.__REV    0x00000000       0x24 C:\Users\kylebs\Desktop\FreeRTOS-lwIP-takeDeux\FreeRTOS-lwIP\Webserver_uIPRTOS_SC_DF\EVAL_KIT\SF_Webserver_Demo\SoftConsole\Webserver_MSS_CM3_0\Webserver_MSS_CM3_0_hw_platform\Debug\libWebserver_MSS_CM3_0_hw_platform.a(core_cm3.o)
 .text.__REV16  0x00000000       0x24 C:\Users\kylebs\Desktop\FreeRTOS-lwIP-takeDeux\FreeRTOS-lwIP\Webserver_uIPRTOS_SC_DF\EVAL_KIT\SF_Webserver_Demo\SoftConsole\Webserver_MSS_CM3_0\Webserver_MSS_CM3_0_hw_platform\Debug\libWebserver_MSS_CM3_0_hw_platform.a(core_cm3.o)
 .text.__REVSH  0x00000000       0x24 C:\Users\kylebs\Desktop\FreeRTOS-lwIP-takeDeux\FreeRTOS-lwIP\Webserver_uIPRTOS_SC_DF\EVAL_KIT\SF_Webserver_Demo\SoftConsole\Webserver_MSS_CM3_0\Webserver_MSS_CM3_0_hw_platform\Debug\libWebserver_MSS_CM3_0_hw_platform.a(core_cm3.o)
 .text.__RBIT   0x00000000       0x24 C:\Users\kylebs\Desktop\FreeRTOS-lwIP-takeDeux\FreeRTOS-lwIP\Webserver_uIPRTOS_SC_DF\EVAL_KIT\SF_Webserver_Demo\SoftConsole\Webserver_MSS_CM3_0\Webserver_MSS_CM3_0_hw_platform\Debug\libWebserver_MSS_CM3_0_hw_platform.a(core_cm3.o)
 .text.__LDREXB
                0x00000000       0x24 C:\Users\kylebs\Desktop\FreeRTOS-lwIP-takeDeux\FreeRTOS-lwIP\Webserver_uIPRTOS_SC_DF\EVAL_KIT\SF_Webserver_Demo\SoftConsole\Webserver_MSS_CM3_0\Webserver_MSS_CM3_0_hw_platform\Debug\libWebserver_MSS_CM3_0_hw_platform.a(core_cm3.o)
 .text.__LDREXH
                0x00000000       0x24 C:\Users\kylebs\Desktop\FreeRTOS-lwIP-takeDeux\FreeRTOS-lwIP\Webserver_uIPRTOS_SC_DF\EVAL_KIT\SF_Webserver_Demo\SoftConsole\Webserver_MSS_CM3_0\Webserver_MSS_CM3_0_hw_platform\Debug\libWebserver_MSS_CM3_0_hw_platform.a(core_cm3.o)
 .text.__LDREXW
                0x00000000       0x24 C:\Users\kylebs\Desktop\FreeRTOS-lwIP-takeDeux\FreeRTOS-lwIP\Webserver_uIPRTOS_SC_DF\EVAL_KIT\SF_Webserver_Demo\SoftConsole\Webserver_MSS_CM3_0\Webserver_MSS_CM3_0_hw_platform\Debug\libWebserver_MSS_CM3_0_hw_platform.a(core_cm3.o)
 .text.__STREXB
                0x00000000       0x2c C:\Users\kylebs\Desktop\FreeRTOS-lwIP-takeDeux\FreeRTOS-lwIP\Webserver_uIPRTOS_SC_DF\EVAL_KIT\SF_Webserver_Demo\SoftConsole\Webserver_MSS_CM3_0\Webserver_MSS_CM3_0_hw_platform\Debug\libWebserver_MSS_CM3_0_hw_platform.a(core_cm3.o)
 .text.__STREXH
                0x00000000       0x2c C:\Users\kylebs\Desktop\FreeRTOS-lwIP-takeDeux\FreeRTOS-lwIP\Webserver_uIPRTOS_SC_DF\EVAL_KIT\SF_Webserver_Demo\SoftConsole\Webserver_MSS_CM3_0\Webserver_MSS_CM3_0_hw_platform\Debug\libWebserver_MSS_CM3_0_hw_platform.a(core_cm3.o)
 .text.__STREXW
                0x00000000       0x28 C:\Users\kylebs\Desktop\FreeRTOS-lwIP-takeDeux\FreeRTOS-lwIP\Webserver_uIPRTOS_SC_DF\EVAL_KIT\SF_Webserver_Demo\SoftConsole\Webserver_MSS_CM3_0\Webserver_MSS_CM3_0_hw_platform\Debug\libWebserver_MSS_CM3_0_hw_platform.a(core_cm3.o)
 .text          0x00000000        0x0 C:\Users\kylebs\Desktop\FreeRTOS-lwIP-takeDeux\FreeRTOS-lwIP\Webserver_uIPRTOS_SC_DF\EVAL_KIT\SF_Webserver_Demo\SoftConsole\Webserver_MSS_CM3_0\Webserver_MSS_CM3_0_hw_platform\Debug\libWebserver_MSS_CM3_0_hw_platform.a(system_a2fxxxm3.o)
 .data          0x00000000        0x0 C:\Users\kylebs\Desktop\FreeRTOS-lwIP-takeDeux\FreeRTOS-lwIP\Webserver_uIPRTOS_SC_DF\EVAL_KIT\SF_Webserver_Demo\SoftConsole\Webserver_MSS_CM3_0\Webserver_MSS_CM3_0_hw_platform\Debug\libWebserver_MSS_CM3_0_hw_platform.a(system_a2fxxxm3.o)
 .bss           0x00000000        0x0 C:\Users\kylebs\Desktop\FreeRTOS-lwIP-takeDeux\FreeRTOS-lwIP\Webserver_uIPRTOS_SC_DF\EVAL_KIT\SF_Webserver_Demo\SoftConsole\Webserver_MSS_CM3_0\Webserver_MSS_CM3_0_hw_platform\Debug\libWebserver_MSS_CM3_0_hw_platform.a(system_a2fxxxm3.o)
 .text          0x00000000        0x0 C:\Users\kylebs\Desktop\FreeRTOS-lwIP-takeDeux\FreeRTOS-lwIP\Webserver_uIPRTOS_SC_DF\EVAL_KIT\SF_Webserver_Demo\SoftConsole\Webserver_MSS_CM3_0\Webserver_MSS_CM3_0_hw_platform\Debug\libWebserver_MSS_CM3_0_hw_platform.a(hal_assert.o)
 .data          0x00000000        0x0 C:\Users\kylebs\Desktop\FreeRTOS-lwIP-takeDeux\FreeRTOS-lwIP\Webserver_uIPRTOS_SC_DF\EVAL_KIT\SF_Webserver_Demo\SoftConsole\Webserver_MSS_CM3_0\Webserver_MSS_CM3_0_hw_platform\Debug\libWebserver_MSS_CM3_0_hw_platform.a(hal_assert.o)
 .bss           0x00000000        0x0 C:\Users\kylebs\Desktop\FreeRTOS-lwIP-takeDeux\FreeRTOS-lwIP\Webserver_uIPRTOS_SC_DF\EVAL_KIT\SF_Webserver_Demo\SoftConsole\Webserver_MSS_CM3_0\Webserver_MSS_CM3_0_hw_platform\Debug\libWebserver_MSS_CM3_0_hw_platform.a(hal_assert.o)
 .data          0x00000000        0x0 C:\Users\kylebs\Desktop\FreeRTOS-lwIP-takeDeux\FreeRTOS-lwIP\Webserver_uIPRTOS_SC_DF\EVAL_KIT\SF_Webserver_Demo\SoftConsole\Webserver_MSS_CM3_0\Webserver_MSS_CM3_0_hw_platform\Debug\libWebserver_MSS_CM3_0_hw_platform.a(hw_reg_access.o)
 .bss           0x00000000        0x0 C:\Users\kylebs\Desktop\FreeRTOS-lwIP-takeDeux\FreeRTOS-lwIP\Webserver_uIPRTOS_SC_DF\EVAL_KIT\SF_Webserver_Demo\SoftConsole\Webserver_MSS_CM3_0\Webserver_MSS_CM3_0_hw_platform\Debug\libWebserver_MSS_CM3_0_hw_platform.a(hw_reg_access.o)
 .text          0x00000000        0x0 C:\Users\kylebs\Desktop\FreeRTOS-lwIP-takeDeux\FreeRTOS-lwIP\Webserver_uIPRTOS_SC_DF\EVAL_KIT\SF_Webserver_Demo\SoftConsole\Webserver_MSS_CM3_0\Webserver_MSS_CM3_0_hw_platform\Debug\libWebserver_MSS_CM3_0_hw_platform.a(crc32.o)
 .data          0x00000000        0x0 C:\Users\kylebs\Desktop\FreeRTOS-lwIP-takeDeux\FreeRTOS-lwIP\Webserver_uIPRTOS_SC_DF\EVAL_KIT\SF_Webserver_Demo\SoftConsole\Webserver_MSS_CM3_0\Webserver_MSS_CM3_0_hw_platform\Debug\libWebserver_MSS_CM3_0_hw_platform.a(crc32.o)
 .bss           0x00000000        0x0 C:\Users\kylebs\Desktop\FreeRTOS-lwIP-takeDeux\FreeRTOS-lwIP\Webserver_uIPRTOS_SC_DF\EVAL_KIT\SF_Webserver_Demo\SoftConsole\Webserver_MSS_CM3_0\Webserver_MSS_CM3_0_hw_platform\Debug\libWebserver_MSS_CM3_0_hw_platform.a(crc32.o)
 .data          0x00000000        0x0 c:/actel/libero_v9.1/softconsole/sourcery-g++/bin/../lib/gcc/arm-none-eabi/4.4.1/thumb2\libgcc.a(_arm_addsubsf3.o)
 .bss           0x00000000        0x0 c:/actel/libero_v9.1/softconsole/sourcery-g++/bin/../lib/gcc/arm-none-eabi/4.4.1/thumb2\libgcc.a(_arm_addsubsf3.o)
 .data          0x00000000        0x0 c:/actel/libero_v9.1/softconsole/sourcery-g++/bin/../lib/gcc/arm-none-eabi/4.4.1/thumb2\libgcc.a(_arm_muldivsf3.o)
 .bss           0x00000000        0x0 c:/actel/libero_v9.1/softconsole/sourcery-g++/bin/../lib/gcc/arm-none-eabi/4.4.1/thumb2\libgcc.a(_arm_muldivsf3.o)
 .data          0x00000000        0x0 c:/actel/libero_v9.1/softconsole/sourcery-g++/bin/../lib/gcc/arm-none-eabi/4.4.1/thumb2\libgcc.a(_arm_fixunssfsi.o)
 .bss           0x00000000        0x0 c:/actel/libero_v9.1/softconsole/sourcery-g++/bin/../lib/gcc/arm-none-eabi/4.4.1/thumb2\libgcc.a(_arm_fixunssfsi.o)
 .text          0x00000000        0xc c:/actel/libero_v9.1/softconsole/sourcery-g++/bin/../lib/gcc/arm-none-eabi/4.4.1/../../../../arm-none-eabi/lib/thumb2\libc.a(lib_a-errno.o)
 .data          0x00000000        0x0 c:/actel/libero_v9.1/softconsole/sourcery-g++/bin/../lib/gcc/arm-none-eabi/4.4.1/../../../../arm-none-eabi/lib/thumb2\libc.a(lib_a-errno.o)
 .bss           0x00000000        0x0 c:/actel/libero_v9.1/softconsole/sourcery-g++/bin/../lib/gcc/arm-none-eabi/4.4.1/../../../../arm-none-eabi/lib/thumb2\libc.a(lib_a-errno.o)
 .text          0x00000000        0x0 c:/actel/libero_v9.1/softconsole/sourcery-g++/bin/../lib/gcc/arm-none-eabi/4.4.1/../../../../arm-none-eabi/lib/thumb2\libc.a(lib_a-impure.o)
 .bss           0x00000000        0x0 c:/actel/libero_v9.1/softconsole/sourcery-g++/bin/../lib/gcc/arm-none-eabi/4.4.1/../../../../arm-none-eabi/lib/thumb2\libc.a(lib_a-impure.o)
 .data          0x00000000        0x0 c:/actel/libero_v9.1/softconsole/sourcery-g++/bin/../lib/gcc/arm-none-eabi/4.4.1/../../../../arm-none-eabi/lib/thumb2\libc.a(lib_a-init.o)
 .bss           0x00000000        0x0 c:/actel/libero_v9.1/softconsole/sourcery-g++/bin/../lib/gcc/arm-none-eabi/4.4.1/../../../../arm-none-eabi/lib/thumb2\libc.a(lib_a-init.o)
 .data          0x00000000        0x0 c:/actel/libero_v9.1/softconsole/sourcery-g++/bin/../lib/gcc/arm-none-eabi/4.4.1/../../../../arm-none-eabi/lib/thumb2\libc.a(lib_a-malloc.o)
 .bss           0x00000000        0x0 c:/actel/libero_v9.1/softconsole/sourcery-g++/bin/../lib/gcc/arm-none-eabi/4.4.1/../../../../arm-none-eabi/lib/thumb2\libc.a(lib_a-malloc.o)
 .data          0x00000000        0x0 c:/actel/libero_v9.1/softconsole/sourcery-g++/bin/../lib/gcc/arm-none-eabi/4.4.1/../../../../arm-none-eabi/lib/thumb2\libc.a(lib_a-memcmp.o)
 .bss           0x00000000        0x0 c:/actel/libero_v9.1/softconsole/sourcery-g++/bin/../lib/gcc/arm-none-eabi/4.4.1/../../../../arm-none-eabi/lib/thumb2\libc.a(lib_a-memcmp.o)
 .data          0x00000000        0x0 c:/actel/libero_v9.1/softconsole/sourcery-g++/bin/../lib/gcc/arm-none-eabi/4.4.1/../../../../arm-none-eabi/lib/thumb2\libc.a(lib_a-memcpy.o)
 .bss           0x00000000        0x0 c:/actel/libero_v9.1/softconsole/sourcery-g++/bin/../lib/gcc/arm-none-eabi/4.4.1/../../../../arm-none-eabi/lib/thumb2\libc.a(lib_a-memcpy.o)
 .data          0x00000000        0x0 c:/actel/libero_v9.1/softconsole/sourcery-g++/bin/../lib/gcc/arm-none-eabi/4.4.1/../../../../arm-none-eabi/lib/thumb2\libc.a(lib_a-memset.o)
 .bss           0x00000000        0x0 c:/actel/libero_v9.1/softconsole/sourcery-g++/bin/../lib/gcc/arm-none-eabi/4.4.1/../../../../arm-none-eabi/lib/thumb2\libc.a(lib_a-memset.o)
 .data          0x00000000        0x0 c:/actel/libero_v9.1/softconsole/sourcery-g++/bin/../lib/gcc/arm-none-eabi/4.4.1/../../../../arm-none-eabi/lib/thumb2\libc.a(lib_a-mlock.o)
 .bss           0x00000000        0x0 c:/actel/libero_v9.1/softconsole/sourcery-g++/bin/../lib/gcc/arm-none-eabi/4.4.1/../../../../arm-none-eabi/lib/thumb2\libc.a(lib_a-mlock.o)
 .data          0x00000000        0x0 c:/actel/libero_v9.1/softconsole/sourcery-g++/bin/../lib/gcc/arm-none-eabi/4.4.1/../../../../arm-none-eabi/lib/thumb2\libc.a(lib_a-printf.o)
 .bss           0x00000000        0x0 c:/actel/libero_v9.1/softconsole/sourcery-g++/bin/../lib/gcc/arm-none-eabi/4.4.1/../../../../arm-none-eabi/lib/thumb2\libc.a(lib_a-printf.o)
 .data          0x00000000        0x0 c:/actel/libero_v9.1/softconsole/sourcery-g++/bin/../lib/gcc/arm-none-eabi/4.4.1/../../../../arm-none-eabi/lib/thumb2\libc.a(lib_a-putchar.o)
 .bss           0x00000000        0x0 c:/actel/libero_v9.1/softconsole/sourcery-g++/bin/../lib/gcc/arm-none-eabi/4.4.1/../../../../arm-none-eabi/lib/thumb2\libc.a(lib_a-putchar.o)
 .data          0x00000000        0x0 c:/actel/libero_v9.1/softconsole/sourcery-g++/bin/../lib/gcc/arm-none-eabi/4.4.1/../../../../arm-none-eabi/lib/thumb2\libc.a(lib_a-puts.o)
 .bss           0x00000000        0x0 c:/actel/libero_v9.1/softconsole/sourcery-g++/bin/../lib/gcc/arm-none-eabi/4.4.1/../../../../arm-none-eabi/lib/thumb2\libc.a(lib_a-puts.o)
 .data          0x00000000        0x0 c:/actel/libero_v9.1/softconsole/sourcery-g++/bin/../lib/gcc/arm-none-eabi/4.4.1/../../../../arm-none-eabi/lib/thumb2\libc.a(lib_a-sbrkr.o)
 .bss           0x00000000        0x0 c:/actel/libero_v9.1/softconsole/sourcery-g++/bin/../lib/gcc/arm-none-eabi/4.4.1/../../../../arm-none-eabi/lib/thumb2\libc.a(lib_a-sbrkr.o)
 .data          0x00000000        0x0 c:/actel/libero_v9.1/softconsole/sourcery-g++/bin/../lib/gcc/arm-none-eabi/4.4.1/../../../../arm-none-eabi/lib/thumb2\libc.a(lib_a-sprintf.o)
 .bss           0x00000000        0x0 c:/actel/libero_v9.1/softconsole/sourcery-g++/bin/../lib/gcc/arm-none-eabi/4.4.1/../../../../arm-none-eabi/lib/thumb2\libc.a(lib_a-sprintf.o)
 .data          0x00000000        0x0 c:/actel/libero_v9.1/softconsole/sourcery-g++/bin/../lib/gcc/arm-none-eabi/4.4.1/../../../../arm-none-eabi/lib/thumb2\libc.a(lib_a-sscanf.o)
 .bss           0x00000000        0x0 c:/actel/libero_v9.1/softconsole/sourcery-g++/bin/../lib/gcc/arm-none-eabi/4.4.1/../../../../arm-none-eabi/lib/thumb2\libc.a(lib_a-sscanf.o)
 .text          0x00000000       0x48 c:/actel/libero_v9.1/softconsole/sourcery-g++/bin/../lib/gcc/arm-none-eabi/4.4.1/../../../../arm-none-eabi/lib/thumb2\libc.a(lib_a-strcat.o)
 .data          0x00000000        0x0 c:/actel/libero_v9.1/softconsole/sourcery-g++/bin/../lib/gcc/arm-none-eabi/4.4.1/../../../../arm-none-eabi/lib/thumb2\libc.a(lib_a-strcat.o)
 .bss           0x00000000        0x0 c:/actel/libero_v9.1/softconsole/sourcery-g++/bin/../lib/gcc/arm-none-eabi/4.4.1/../../../../arm-none-eabi/lib/thumb2\libc.a(lib_a-strcat.o)
 .data          0x00000000        0x0 c:/actel/libero_v9.1/softconsole/sourcery-g++/bin/../lib/gcc/arm-none-eabi/4.4.1/../../../../arm-none-eabi/lib/thumb2\libc.a(lib_a-strchr.o)
 .bss           0x00000000        0x0 c:/actel/libero_v9.1/softconsole/sourcery-g++/bin/../lib/gcc/arm-none-eabi/4.4.1/../../../../arm-none-eabi/lib/thumb2\libc.a(lib_a-strchr.o)
 .data          0x00000000        0x0 c:/actel/libero_v9.1/softconsole/sourcery-g++/bin/../lib/gcc/arm-none-eabi/4.4.1/../../../../arm-none-eabi/lib/thumb2\libc.a(lib_a-strcmp.o)
 .bss           0x00000000        0x0 c:/actel/libero_v9.1/softconsole/sourcery-g++/bin/../lib/gcc/arm-none-eabi/4.4.1/../../../../arm-none-eabi/lib/thumb2\libc.a(lib_a-strcmp.o)
 .data          0x00000000        0x0 c:/actel/libero_v9.1/softconsole/sourcery-g++/bin/../lib/gcc/arm-none-eabi/4.4.1/../../../../arm-none-eabi/lib/thumb2\libc.a(lib_a-strcpy.o)
 .bss           0x00000000        0x0 c:/actel/libero_v9.1/softconsole/sourcery-g++/bin/../lib/gcc/arm-none-eabi/4.4.1/../../../../arm-none-eabi/lib/thumb2\libc.a(lib_a-strcpy.o)
 .data          0x00000000        0x0 c:/actel/libero_v9.1/softconsole/sourcery-g++/bin/../lib/gcc/arm-none-eabi/4.4.1/../../../../arm-none-eabi/lib/thumb2\libc.a(lib_a-strlen.o)
 .bss           0x00000000        0x0 c:/actel/libero_v9.1/softconsole/sourcery-g++/bin/../lib/gcc/arm-none-eabi/4.4.1/../../../../arm-none-eabi/lib/thumb2\libc.a(lib_a-strlen.o)
 .data          0x00000000        0x0 c:/actel/libero_v9.1/softconsole/sourcery-g++/bin/../lib/gcc/arm-none-eabi/4.4.1/../../../../arm-none-eabi/lib/thumb2\libc.a(lib_a-strncmp.o)
 .bss           0x00000000        0x0 c:/actel/libero_v9.1/softconsole/sourcery-g++/bin/../lib/gcc/arm-none-eabi/4.4.1/../../../../arm-none-eabi/lib/thumb2\libc.a(lib_a-strncmp.o)
 .data          0x00000000        0x0 c:/actel/libero_v9.1/softconsole/sourcery-g++/bin/../lib/gcc/arm-none-eabi/4.4.1/../../../../arm-none-eabi/lib/thumb2\libc.a(lib_a-strncpy.o)
 .bss           0x00000000        0x0 c:/actel/libero_v9.1/softconsole/sourcery-g++/bin/../lib/gcc/arm-none-eabi/4.4.1/../../../../arm-none-eabi/lib/thumb2\libc.a(lib_a-strncpy.o)
 .data          0x00000000        0x0 c:/actel/libero_v9.1/softconsole/sourcery-g++/bin/../lib/gcc/arm-none-eabi/4.4.1/../../../../arm-none-eabi/lib/thumb2\libc.a(lib_a-svfprintf.o)
 .bss           0x00000000        0x0 c:/actel/libero_v9.1/softconsole/sourcery-g++/bin/../lib/gcc/arm-none-eabi/4.4.1/../../../../arm-none-eabi/lib/thumb2\libc.a(lib_a-svfprintf.o)
 .data          0x00000000        0x0 c:/actel/libero_v9.1/softconsole/sourcery-g++/bin/../lib/gcc/arm-none-eabi/4.4.1/../../../../arm-none-eabi/lib/thumb2\libc.a(lib_a-svfscanf.o)
 .bss           0x00000000        0x0 c:/actel/libero_v9.1/softconsole/sourcery-g++/bin/../lib/gcc/arm-none-eabi/4.4.1/../../../../arm-none-eabi/lib/thumb2\libc.a(lib_a-svfscanf.o)
 .data          0x00000000        0x0 c:/actel/libero_v9.1/softconsole/sourcery-g++/bin/../lib/gcc/arm-none-eabi/4.4.1/../../../../arm-none-eabi/lib/thumb2\libc.a(lib_a-ungetc.o)
 .bss           0x00000000        0x0 c:/actel/libero_v9.1/softconsole/sourcery-g++/bin/../lib/gcc/arm-none-eabi/4.4.1/../../../../arm-none-eabi/lib/thumb2\libc.a(lib_a-ungetc.o)
 .data          0x00000000        0x0 c:/actel/libero_v9.1/softconsole/sourcery-g++/bin/../lib/gcc/arm-none-eabi/4.4.1/../../../../arm-none-eabi/lib/thumb2\libc.a(lib_a-vfprintf.o)
 .bss           0x00000000        0x0 c:/actel/libero_v9.1/softconsole/sourcery-g++/bin/../lib/gcc/arm-none-eabi/4.4.1/../../../../arm-none-eabi/lib/thumb2\libc.a(lib_a-vfprintf.o)
 .data          0x00000000        0x0 c:/actel/libero_v9.1/softconsole/sourcery-g++/bin/../lib/gcc/arm-none-eabi/4.4.1/../../../../arm-none-eabi/lib/thumb2\libc.a(lib_a-wsetup.o)
 .bss           0x00000000        0x0 c:/actel/libero_v9.1/softconsole/sourcery-g++/bin/../lib/gcc/arm-none-eabi/4.4.1/../../../../arm-none-eabi/lib/thumb2\libc.a(lib_a-wsetup.o)
 .text          0x00000000        0x0 c:/actel/libero_v9.1/softconsole/sourcery-g++/bin/../lib/gcc/arm-none-eabi/4.4.1/../../../../arm-none-eabi/lib/thumb2\libc.a(lib_a-ctype_.o)
 .bss           0x00000000        0x0 c:/actel/libero_v9.1/softconsole/sourcery-g++/bin/../lib/gcc/arm-none-eabi/4.4.1/../../../../arm-none-eabi/lib/thumb2\libc.a(lib_a-ctype_.o)
 .data          0x00000000        0x0 c:/actel/libero_v9.1/softconsole/sourcery-g++/bin/../lib/gcc/arm-none-eabi/4.4.1/../../../../arm-none-eabi/lib/thumb2\libc.a(lib_a-dtoa.o)
 .bss           0x00000000        0x0 c:/actel/libero_v9.1/softconsole/sourcery-g++/bin/../lib/gcc/arm-none-eabi/4.4.1/../../../../arm-none-eabi/lib/thumb2\libc.a(lib_a-dtoa.o)
 .data          0x00000000        0x0 c:/actel/libero_v9.1/softconsole/sourcery-g++/bin/../lib/gcc/arm-none-eabi/4.4.1/../../../../arm-none-eabi/lib/thumb2\libc.a(lib_a-fflush.o)
 .bss           0x00000000        0x0 c:/actel/libero_v9.1/softconsole/sourcery-g++/bin/../lib/gcc/arm-none-eabi/4.4.1/../../../../arm-none-eabi/lib/thumb2\libc.a(lib_a-fflush.o)
 .data          0x00000000        0x0 c:/actel/libero_v9.1/softconsole/sourcery-g++/bin/../lib/gcc/arm-none-eabi/4.4.1/../../../../arm-none-eabi/lib/thumb2\libc.a(lib_a-findfp.o)
 .bss           0x00000000        0x0 c:/actel/libero_v9.1/softconsole/sourcery-g++/bin/../lib/gcc/arm-none-eabi/4.4.1/../../../../arm-none-eabi/lib/thumb2\libc.a(lib_a-findfp.o)
 .data          0x00000000        0x0 c:/actel/libero_v9.1/softconsole/sourcery-g++/bin/../lib/gcc/arm-none-eabi/4.4.1/../../../../arm-none-eabi/lib/thumb2\libc.a(lib_a-freer.o)
 .bss           0x00000000        0x0 c:/actel/libero_v9.1/softconsole/sourcery-g++/bin/../lib/gcc/arm-none-eabi/4.4.1/../../../../arm-none-eabi/lib/thumb2\libc.a(lib_a-freer.o)
 .data          0x00000000        0x0 c:/actel/libero_v9.1/softconsole/sourcery-g++/bin/../lib/gcc/arm-none-eabi/4.4.1/../../../../arm-none-eabi/lib/thumb2\libc.a(lib_a-fvwrite.o)
 .bss           0x00000000        0x0 c:/actel/libero_v9.1/softconsole/sourcery-g++/bin/../lib/gcc/arm-none-eabi/4.4.1/../../../../arm-none-eabi/lib/thumb2\libc.a(lib_a-fvwrite.o)
 .data          0x00000000        0x0 c:/actel/libero_v9.1/softconsole/sourcery-g++/bin/../lib/gcc/arm-none-eabi/4.4.1/../../../../arm-none-eabi/lib/thumb2\libc.a(lib_a-fwalk.o)
 .bss           0x00000000        0x0 c:/actel/libero_v9.1/softconsole/sourcery-g++/bin/../lib/gcc/arm-none-eabi/4.4.1/../../../../arm-none-eabi/lib/thumb2\libc.a(lib_a-fwalk.o)
 .data          0x00000000        0x0 c:/actel/libero_v9.1/softconsole/sourcery-g++/bin/../lib/gcc/arm-none-eabi/4.4.1/../../../../arm-none-eabi/lib/thumb2\libc.a(lib_a-iswspace.o)
 .bss           0x00000000        0x0 c:/actel/libero_v9.1/softconsole/sourcery-g++/bin/../lib/gcc/arm-none-eabi/4.4.1/../../../../arm-none-eabi/lib/thumb2\libc.a(lib_a-iswspace.o)
 .bss           0x00000000        0xc c:/actel/libero_v9.1/softconsole/sourcery-g++/bin/../lib/gcc/arm-none-eabi/4.4.1/../../../../arm-none-eabi/lib/thumb2\libc.a(lib_a-locale.o)
 .data          0x00000000        0x0 c:/actel/libero_v9.1/softconsole/sourcery-g++/bin/../lib/gcc/arm-none-eabi/4.4.1/../../../../arm-none-eabi/lib/thumb2\libc.a(lib_a-makebuf.o)
 .bss           0x00000000        0x0 c:/actel/libero_v9.1/softconsole/sourcery-g++/bin/../lib/gcc/arm-none-eabi/4.4.1/../../../../arm-none-eabi/lib/thumb2\libc.a(lib_a-makebuf.o)
 .data          0x00000000        0x0 c:/actel/libero_v9.1/softconsole/sourcery-g++/bin/../lib/gcc/arm-none-eabi/4.4.1/../../../../arm-none-eabi/lib/thumb2\libc.a(lib_a-mbrtowc.o)
 .bss           0x00000000        0x0 c:/actel/libero_v9.1/softconsole/sourcery-g++/bin/../lib/gcc/arm-none-eabi/4.4.1/../../../../arm-none-eabi/lib/thumb2\libc.a(lib_a-mbrtowc.o)
 .data          0x00000000        0x0 c:/actel/libero_v9.1/softconsole/sourcery-g++/bin/../lib/gcc/arm-none-eabi/4.4.1/../../../../arm-none-eabi/lib/thumb2\libc.a(lib_a-mbtowc_r.o)
 .bss           0x00000000        0x0 c:/actel/libero_v9.1/softconsole/sourcery-g++/bin/../lib/gcc/arm-none-eabi/4.4.1/../../../../arm-none-eabi/lib/thumb2\libc.a(lib_a-mbtowc_r.o)
 .data          0x00000000        0x0 c:/actel/libero_v9.1/softconsole/sourcery-g++/bin/../lib/gcc/arm-none-eabi/4.4.1/../../../../arm-none-eabi/lib/thumb2\libc.a(lib_a-memchr.o)
 .bss           0x00000000        0x0 c:/actel/libero_v9.1/softconsole/sourcery-g++/bin/../lib/gcc/arm-none-eabi/4.4.1/../../../../arm-none-eabi/lib/thumb2\libc.a(lib_a-memchr.o)
 .data          0x00000000        0x0 c:/actel/libero_v9.1/softconsole/sourcery-g++/bin/../lib/gcc/arm-none-eabi/4.4.1/../../../../arm-none-eabi/lib/thumb2\libc.a(lib_a-memmove.o)
 .bss           0x00000000        0x0 c:/actel/libero_v9.1/softconsole/sourcery-g++/bin/../lib/gcc/arm-none-eabi/4.4.1/../../../../arm-none-eabi/lib/thumb2\libc.a(lib_a-memmove.o)
 .data          0x00000000        0x0 c:/actel/libero_v9.1/softconsole/sourcery-g++/bin/../lib/gcc/arm-none-eabi/4.4.1/../../../../arm-none-eabi/lib/thumb2\libc.a(lib_a-mprec.o)
 .bss           0x00000000        0x0 c:/actel/libero_v9.1/softconsole/sourcery-g++/bin/../lib/gcc/arm-none-eabi/4.4.1/../../../../arm-none-eabi/lib/thumb2\libc.a(lib_a-mprec.o)
 .data          0x00000000        0x0 c:/actel/libero_v9.1/softconsole/sourcery-g++/bin/../lib/gcc/arm-none-eabi/4.4.1/../../../../arm-none-eabi/lib/thumb2\libc.a(lib_a-putc.o)
 .bss           0x00000000        0x0 c:/actel/libero_v9.1/softconsole/sourcery-g++/bin/../lib/gcc/arm-none-eabi/4.4.1/../../../../arm-none-eabi/lib/thumb2\libc.a(lib_a-putc.o)
 .data          0x00000000        0x0 c:/actel/libero_v9.1/softconsole/sourcery-g++/bin/../lib/gcc/arm-none-eabi/4.4.1/../../../../arm-none-eabi/lib/thumb2\libc.a(lib_a-reallocr.o)
 .bss           0x00000000        0x0 c:/actel/libero_v9.1/softconsole/sourcery-g++/bin/../lib/gcc/arm-none-eabi/4.4.1/../../../../arm-none-eabi/lib/thumb2\libc.a(lib_a-reallocr.o)
 .text          0x00000000      0x10c c:/actel/libero_v9.1/softconsole/sourcery-g++/bin/../lib/gcc/arm-none-eabi/4.4.1/../../../../arm-none-eabi/lib/thumb2\libc.a(lib_a-reent.o)
 .data          0x00000000        0x0 c:/actel/libero_v9.1/softconsole/sourcery-g++/bin/../lib/gcc/arm-none-eabi/4.4.1/../../../../arm-none-eabi/lib/thumb2\libc.a(lib_a-reent.o)
 .bss           0x00000000        0x0 c:/actel/libero_v9.1/softconsole/sourcery-g++/bin/../lib/gcc/arm-none-eabi/4.4.1/../../../../arm-none-eabi/lib/thumb2\libc.a(lib_a-reent.o)
 .data          0x00000000        0x0 c:/actel/libero_v9.1/softconsole/sourcery-g++/bin/../lib/gcc/arm-none-eabi/4.4.1/../../../../arm-none-eabi/lib/thumb2\libc.a(lib_a-s_isinfd.o)
 .bss           0x00000000        0x0 c:/actel/libero_v9.1/softconsole/sourcery-g++/bin/../lib/gcc/arm-none-eabi/4.4.1/../../../../arm-none-eabi/lib/thumb2\libc.a(lib_a-s_isinfd.o)
 .data          0x00000000        0x0 c:/actel/libero_v9.1/softconsole/sourcery-g++/bin/../lib/gcc/arm-none-eabi/4.4.1/../../../../arm-none-eabi/lib/thumb2\libc.a(lib_a-s_isnand.o)
 .bss           0x00000000        0x0 c:/actel/libero_v9.1/softconsole/sourcery-g++/bin/../lib/gcc/arm-none-eabi/4.4.1/../../../../arm-none-eabi/lib/thumb2\libc.a(lib_a-s_isnand.o)
 .data          0x00000000        0x0 c:/actel/libero_v9.1/softconsole/sourcery-g++/bin/../lib/gcc/arm-none-eabi/4.4.1/../../../../arm-none-eabi/lib/thumb2\libc.a(lib_a-sccl.o)
 .bss           0x00000000        0x0 c:/actel/libero_v9.1/softconsole/sourcery-g++/bin/../lib/gcc/arm-none-eabi/4.4.1/../../../../arm-none-eabi/lib/thumb2\libc.a(lib_a-sccl.o)
 .data          0x00000000        0x0 c:/actel/libero_v9.1/softconsole/sourcery-g++/bin/../lib/gcc/arm-none-eabi/4.4.1/../../../../arm-none-eabi/lib/thumb2\libc.a(lib_a-sf_nan.o)
 .bss           0x00000000        0x0 c:/actel/libero_v9.1/softconsole/sourcery-g++/bin/../lib/gcc/arm-none-eabi/4.4.1/../../../../arm-none-eabi/lib/thumb2\libc.a(lib_a-sf_nan.o)
 .data          0x00000000        0x0 c:/actel/libero_v9.1/softconsole/sourcery-g++/bin/../lib/gcc/arm-none-eabi/4.4.1/../../../../arm-none-eabi/lib/thumb2\libc.a(lib_a-stdio.o)
 .bss           0x00000000        0x0 c:/actel/libero_v9.1/softconsole/sourcery-g++/bin/../lib/gcc/arm-none-eabi/4.4.1/../../../../arm-none-eabi/lib/thumb2\libc.a(lib_a-stdio.o)
 .bss           0x00000000        0x0 c:/actel/libero_v9.1/softconsole/sourcery-g++/bin/../lib/gcc/arm-none-eabi/4.4.1/../../../../arm-none-eabi/lib/thumb2\libc.a(lib_a-strtod.o)
 .data          0x00000000        0x0 c:/actel/libero_v9.1/softconsole/sourcery-g++/bin/../lib/gcc/arm-none-eabi/4.4.1/../../../../arm-none-eabi/lib/thumb2\libc.a(lib_a-strtol.o)
 .bss           0x00000000        0x0 c:/actel/libero_v9.1/softconsole/sourcery-g++/bin/../lib/gcc/arm-none-eabi/4.4.1/../../../../arm-none-eabi/lib/thumb2\libc.a(lib_a-strtol.o)
 .data          0x00000000        0x0 c:/actel/libero_v9.1/softconsole/sourcery-g++/bin/../lib/gcc/arm-none-eabi/4.4.1/../../../../arm-none-eabi/lib/thumb2\libc.a(lib_a-strtoll_r.o)
 .bss           0x00000000        0x0 c:/actel/libero_v9.1/softconsole/sourcery-g++/bin/../lib/gcc/arm-none-eabi/4.4.1/../../../../arm-none-eabi/lib/thumb2\libc.a(lib_a-strtoll_r.o)
 .data          0x00000000        0x0 c:/actel/libero_v9.1/softconsole/sourcery-g++/bin/../lib/gcc/arm-none-eabi/4.4.1/../../../../arm-none-eabi/lib/thumb2\libc.a(lib_a-strtoul.o)
 .bss           0x00000000        0x0 c:/actel/libero_v9.1/softconsole/sourcery-g++/bin/../lib/gcc/arm-none-eabi/4.4.1/../../../../arm-none-eabi/lib/thumb2\libc.a(lib_a-strtoul.o)
 .data          0x00000000        0x0 c:/actel/libero_v9.1/softconsole/sourcery-g++/bin/../lib/gcc/arm-none-eabi/4.4.1/../../../../arm-none-eabi/lib/thumb2\libc.a(lib_a-strtoull_r.o)
 .bss           0x00000000        0x0 c:/actel/libero_v9.1/softconsole/sourcery-g++/bin/../lib/gcc/arm-none-eabi/4.4.1/../../../../arm-none-eabi/lib/thumb2\libc.a(lib_a-strtoull_r.o)
 .data          0x00000000        0x0 c:/actel/libero_v9.1/softconsole/sourcery-g++/bin/../lib/gcc/arm-none-eabi/4.4.1/../../../../arm-none-eabi/lib/thumb2\libc.a(lib_a-wbuf.o)
 .bss           0x00000000        0x0 c:/actel/libero_v9.1/softconsole/sourcery-g++/bin/../lib/gcc/arm-none-eabi/4.4.1/../../../../arm-none-eabi/lib/thumb2\libc.a(lib_a-wbuf.o)
 .data          0x00000000        0x0 c:/actel/libero_v9.1/softconsole/sourcery-g++/bin/../lib/gcc/arm-none-eabi/4.4.1/../../../../arm-none-eabi/lib/thumb2\libc.a(lib_a-callocr.o)
 .bss           0x00000000        0x0 c:/actel/libero_v9.1/softconsole/sourcery-g++/bin/../lib/gcc/arm-none-eabi/4.4.1/../../../../arm-none-eabi/lib/thumb2\libc.a(lib_a-callocr.o)
 .data          0x00000000        0x0 c:/actel/libero_v9.1/softconsole/sourcery-g++/bin/../lib/gcc/arm-none-eabi/4.4.1/../../../../arm-none-eabi/lib/thumb2\libc.a(lib_a-closer.o)
 .bss           0x00000000        0x0 c:/actel/libero_v9.1/softconsole/sourcery-g++/bin/../lib/gcc/arm-none-eabi/4.4.1/../../../../arm-none-eabi/lib/thumb2\libc.a(lib_a-closer.o)
 .data          0x00000000        0x0 c:/actel/libero_v9.1/softconsole/sourcery-g++/bin/../lib/gcc/arm-none-eabi/4.4.1/../../../../arm-none-eabi/lib/thumb2\libc.a(lib_a-fclose.o)
 .bss           0x00000000        0x0 c:/actel/libero_v9.1/softconsole/sourcery-g++/bin/../lib/gcc/arm-none-eabi/4.4.1/../../../../arm-none-eabi/lib/thumb2\libc.a(lib_a-fclose.o)
 .data          0x00000000        0x0 c:/actel/libero_v9.1/softconsole/sourcery-g++/bin/../lib/gcc/arm-none-eabi/4.4.1/../../../../arm-none-eabi/lib/thumb2\libc.a(lib_a-fstatr.o)
 .bss           0x00000000        0x0 c:/actel/libero_v9.1/softconsole/sourcery-g++/bin/../lib/gcc/arm-none-eabi/4.4.1/../../../../arm-none-eabi/lib/thumb2\libc.a(lib_a-fstatr.o)
 .data          0x00000000        0x0 c:/actel/libero_v9.1/softconsole/sourcery-g++/bin/../lib/gcc/arm-none-eabi/4.4.1/../../../../arm-none-eabi/lib/thumb2\libc.a(lib_a-gdtoa-gethex.o)
 .bss           0x00000000        0x0 c:/actel/libero_v9.1/softconsole/sourcery-g++/bin/../lib/gcc/arm-none-eabi/4.4.1/../../../../arm-none-eabi/lib/thumb2\libc.a(lib_a-gdtoa-gethex.o)
 .data          0x00000000        0x0 c:/actel/libero_v9.1/softconsole/sourcery-g++/bin/../lib/gcc/arm-none-eabi/4.4.1/../../../../arm-none-eabi/lib/thumb2\libc.a(lib_a-gdtoa-hexnan.o)
 .bss           0x00000000        0x0 c:/actel/libero_v9.1/softconsole/sourcery-g++/bin/../lib/gcc/arm-none-eabi/4.4.1/../../../../arm-none-eabi/lib/thumb2\libc.a(lib_a-gdtoa-hexnan.o)
 .data          0x00000000        0x0 c:/actel/libero_v9.1/softconsole/sourcery-g++/bin/../lib/gcc/arm-none-eabi/4.4.1/../../../../arm-none-eabi/lib/thumb2\libc.a(lib_a-isattyr.o)
 .bss           0x00000000        0x0 c:/actel/libero_v9.1/softconsole/sourcery-g++/bin/../lib/gcc/arm-none-eabi/4.4.1/../../../../arm-none-eabi/lib/thumb2\libc.a(lib_a-isattyr.o)
 .data          0x00000000        0x0 c:/actel/libero_v9.1/softconsole/sourcery-g++/bin/../lib/gcc/arm-none-eabi/4.4.1/../../../../arm-none-eabi/lib/thumb2\libc.a(lib_a-lseekr.o)
 .bss           0x00000000        0x0 c:/actel/libero_v9.1/softconsole/sourcery-g++/bin/../lib/gcc/arm-none-eabi/4.4.1/../../../../arm-none-eabi/lib/thumb2\libc.a(lib_a-lseekr.o)
 .data          0x00000000        0x0 c:/actel/libero_v9.1/softconsole/sourcery-g++/bin/../lib/gcc/arm-none-eabi/4.4.1/../../../../arm-none-eabi/lib/thumb2\libc.a(lib_a-readr.o)
 .bss           0x00000000        0x0 c:/actel/libero_v9.1/softconsole/sourcery-g++/bin/../lib/gcc/arm-none-eabi/4.4.1/../../../../arm-none-eabi/lib/thumb2\libc.a(lib_a-readr.o)
 .data          0x00000000        0x0 c:/actel/libero_v9.1/softconsole/sourcery-g++/bin/../lib/gcc/arm-none-eabi/4.4.1/thumb2\libgcc.a(_udivsi3.o)
 .bss           0x00000000        0x0 c:/actel/libero_v9.1/softconsole/sourcery-g++/bin/../lib/gcc/arm-none-eabi/4.4.1/thumb2\libgcc.a(_udivsi3.o)
 .data          0x00000000        0x0 c:/actel/libero_v9.1/softconsole/sourcery-g++/bin/../lib/gcc/arm-none-eabi/4.4.1/thumb2\libgcc.a(_dvmd_tls.o)
 .bss           0x00000000        0x0 c:/actel/libero_v9.1/softconsole/sourcery-g++/bin/../lib/gcc/arm-none-eabi/4.4.1/thumb2\libgcc.a(_dvmd_tls.o)
 .data          0x00000000        0x0 c:/actel/libero_v9.1/softconsole/sourcery-g++/bin/../lib/gcc/arm-none-eabi/4.4.1/thumb2\libgcc.a(_arm_addsubdf3.o)
 .bss           0x00000000        0x0 c:/actel/libero_v9.1/softconsole/sourcery-g++/bin/../lib/gcc/arm-none-eabi/4.4.1/thumb2\libgcc.a(_arm_addsubdf3.o)
 .data          0x00000000        0x0 c:/actel/libero_v9.1/softconsole/sourcery-g++/bin/../lib/gcc/arm-none-eabi/4.4.1/thumb2\libgcc.a(_arm_muldivdf3.o)
 .bss           0x00000000        0x0 c:/actel/libero_v9.1/softconsole/sourcery-g++/bin/../lib/gcc/arm-none-eabi/4.4.1/thumb2\libgcc.a(_arm_muldivdf3.o)
 .data          0x00000000        0x0 c:/actel/libero_v9.1/softconsole/sourcery-g++/bin/../lib/gcc/arm-none-eabi/4.4.1/thumb2\libgcc.a(_arm_cmpdf2.o)
 .bss           0x00000000        0x0 c:/actel/libero_v9.1/softconsole/sourcery-g++/bin/../lib/gcc/arm-none-eabi/4.4.1/thumb2\libgcc.a(_arm_cmpdf2.o)
 .data          0x00000000        0x0 c:/actel/libero_v9.1/softconsole/sourcery-g++/bin/../lib/gcc/arm-none-eabi/4.4.1/thumb2\libgcc.a(_arm_fixdfsi.o)
 .bss           0x00000000        0x0 c:/actel/libero_v9.1/softconsole/sourcery-g++/bin/../lib/gcc/arm-none-eabi/4.4.1/thumb2\libgcc.a(_arm_fixdfsi.o)
 .data          0x00000000        0x0 c:/actel/libero_v9.1/softconsole/sourcery-g++/bin/../lib/gcc/arm-none-eabi/4.4.1/thumb2\libgcc.a(_arm_fixunsdfsi.o)
 .bss           0x00000000        0x0 c:/actel/libero_v9.1/softconsole/sourcery-g++/bin/../lib/gcc/arm-none-eabi/4.4.1/thumb2\libgcc.a(_arm_fixunsdfsi.o)
 .data          0x00000000        0x0 c:/actel/libero_v9.1/softconsole/sourcery-g++/bin/../lib/gcc/arm-none-eabi/4.4.1/thumb2\libgcc.a(_arm_truncdfsf2.o)
 .bss           0x00000000        0x0 c:/actel/libero_v9.1/softconsole/sourcery-g++/bin/../lib/gcc/arm-none-eabi/4.4.1/thumb2\libgcc.a(_arm_truncdfsf2.o)
 .data          0x00000000        0x0 c:/actel/libero_v9.1/softconsole/sourcery-g++/bin/../lib/gcc/arm-none-eabi/4.4.1/thumb2\libgcc.a(_arm_cmpsf2.o)
 .bss           0x00000000        0x0 c:/actel/libero_v9.1/softconsole/sourcery-g++/bin/../lib/gcc/arm-none-eabi/4.4.1/thumb2\libgcc.a(_arm_cmpsf2.o)
 .data          0x00000000        0x0 c:/actel/libero_v9.1/softconsole/sourcery-g++/bin/../lib/gcc/arm-none-eabi/4.4.1/thumb2\libgcc.a(_aeabi_uldivmod.o)
 .bss           0x00000000        0x0 c:/actel/libero_v9.1/softconsole/sourcery-g++/bin/../lib/gcc/arm-none-eabi/4.4.1/thumb2\libgcc.a(_aeabi_uldivmod.o)
 .data          0x00000000        0x0 c:/actel/libero_v9.1/softconsole/sourcery-g++/bin/../lib/gcc/arm-none-eabi/4.4.1/thumb2\libgcc.a(bpabi.o)
 .bss           0x00000000        0x0 c:/actel/libero_v9.1/softconsole/sourcery-g++/bin/../lib/gcc/arm-none-eabi/4.4.1/thumb2\libgcc.a(bpabi.o)
 .data          0x00000000        0x0 c:/actel/libero_v9.1/softconsole/sourcery-g++/bin/../lib/gcc/arm-none-eabi/4.4.1/thumb2\libgcc.a(_divdi3.o)
 .bss           0x00000000        0x0 c:/actel/libero_v9.1/softconsole/sourcery-g++/bin/../lib/gcc/arm-none-eabi/4.4.1/thumb2\libgcc.a(_divdi3.o)
 .ARM.extab     0x00000000        0x0 c:/actel/libero_v9.1/softconsole/sourcery-g++/bin/../lib/gcc/arm-none-eabi/4.4.1/thumb2\libgcc.a(_divdi3.o)
 .data          0x00000000        0x0 c:/actel/libero_v9.1/softconsole/sourcery-g++/bin/../lib/gcc/arm-none-eabi/4.4.1/thumb2\libgcc.a(_udivdi3.o)
 .bss           0x00000000        0x0 c:/actel/libero_v9.1/softconsole/sourcery-g++/bin/../lib/gcc/arm-none-eabi/4.4.1/thumb2\libgcc.a(_udivdi3.o)
 .ARM.extab     0x00000000        0x0 c:/actel/libero_v9.1/softconsole/sourcery-g++/bin/../lib/gcc/arm-none-eabi/4.4.1/thumb2\libgcc.a(_udivdi3.o)
 .text          0x00000000        0x0 c:/actel/libero_v9.1/softconsole/sourcery-g++/bin/../lib/gcc/arm-none-eabi/4.4.1/thumb2/crtend.o
 .data          0x00000000        0x0 c:/actel/libero_v9.1/softconsole/sourcery-g++/bin/../lib/gcc/arm-none-eabi/4.4.1/thumb2/crtend.o
 .bss           0x00000000        0x0 c:/actel/libero_v9.1/softconsole/sourcery-g++/bin/../lib/gcc/arm-none-eabi/4.4.1/thumb2/crtend.o
 .text          0x00000000        0x0 c:/actel/libero_v9.1/softconsole/sourcery-g++/bin/../lib/gcc/arm-none-eabi/4.4.1/thumb2/crtn.o
 .data          0x00000000        0x0 c:/actel/libero_v9.1/softconsole/sourcery-g++/bin/../lib/gcc/arm-none-eabi/4.4.1/thumb2/crtn.o
 .bss           0x00000000        0x0 c:/actel/libero_v9.1/softconsole/sourcery-g++/bin/../lib/gcc/arm-none-eabi/4.4.1/thumb2/crtn.o

Memory Configuration

Name             Origin             Length             Attributes
rom              0x60000000         0x00040000         xr
romMirror        0x00000000         0x00040000         xr
ram              0x20000000         0x00010000         xrw
*default*        0x00000000         0xffffffff

Linker script and memory map

LOAD c:/actel/libero_v9.1/softconsole/sourcery-g++/bin/../lib/gcc/arm-none-eabi/4.4.1/thumb2/crti.o
LOAD c:/actel/libero_v9.1/softconsole/sourcery-g++/bin/../lib/gcc/arm-none-eabi/4.4.1/thumb2/crtbegin.o
LOAD ./main.o
LOAD ./webclient/webclient-strings.o
LOAD ./webclient/webclient.o
LOAD ./uip/psock.o
LOAD ./uip/uip-fw.o
LOAD ./uip/uip-neighbor.o
LOAD ./uip/uip-split.o
LOAD ./uip/uip.o
LOAD ./uip/uip_arp.o
LOAD ./uip/uiplib.o
LOAD ./resolv/resolv.o
LOAD ./mac/tcpip.o
LOAD ./jsmn/jsmn.o
LOAD ./application_tasks/controller_task.o
LOAD ./application_tasks/http_task.o
LOAD ./application_tasks/lcd_task.o
LOAD ./application_tasks/nunchuck_task.o
LOAD ./FreeRTOS/list.o
LOAD ./FreeRTOS/queue.o
LOAD ./FreeRTOS/tasks.o
LOAD ./FreeRTOS/timers.o
LOAD ./FreeRTOS/portable/MemMang/heap_3.o
LOAD ./FreeRTOS/portable/GCC/ARM_CM3/port.o
LOAD ./BSP/spi_flash_driver/spi_flash.o
LOAD ./BSP/i2c_driver/i2c.o
LOAD ./BSP/emc_driver/nor.o
LOAD C:/Users/kylebs/Desktop/FreeRTOS-lwIP-takeDeux/FreeRTOS-lwIP/Webserver_uIPRTOS_SC_DF/EVAL_KIT/SF_Webserver_Demo/SoftConsole/Webserver_MSS_CM3_0/Webserver_MSS_CM3_0_hw_platform/Debug/CMSIS/startup_gcc/startup_a2fxxxm3.o
LOAD C:/Users/kylebs/Desktop/FreeRTOS-lwIP-takeDeux/FreeRTOS-lwIP/Webserver_uIPRTOS_SC_DF/EVAL_KIT/SF_Webserver_Demo/SoftConsole/Webserver_MSS_CM3_0/Webserver_MSS_CM3_0_hw_platform/Debug/CMSIS/startup_gcc/newlib_stubs.o
LOAD C:\Users\kylebs\Desktop\FreeRTOS-lwIP-takeDeux\FreeRTOS-lwIP\Webserver_uIPRTOS_SC_DF\EVAL_KIT\SF_Webserver_Demo\SoftConsole\Webserver_MSS_CM3_0\Webserver_MSS_CM3_0_hw_platform\Debug\libWebserver_MSS_CM3_0_hw_platform.a
START GROUP
LOAD c:/actel/libero_v9.1/softconsole/sourcery-g++/bin/../lib/gcc/arm-none-eabi/4.4.1/thumb2\libgcc.a
LOAD c:/actel/libero_v9.1/softconsole/sourcery-g++/bin/../lib/gcc/arm-none-eabi/4.4.1/../../../../arm-none-eabi/lib/thumb2\libc.a
END GROUP
LOAD c:/actel/libero_v9.1/softconsole/sourcery-g++/bin/../lib/gcc/arm-none-eabi/4.4.1/thumb2/crtend.o
LOAD c:/actel/libero_v9.1/softconsole/sourcery-g++/bin/../lib/gcc/arm-none-eabi/4.4.1/thumb2/crtn.o
START GROUP
LOAD c:/actel/libero_v9.1/softconsole/sourcery-g++/bin/../lib/gcc/arm-none-eabi/4.4.1/../../../../arm-none-eabi/lib/thumb2\libc.a
LOAD c:/actel/libero_v9.1/softconsole/sourcery-g++/bin/../lib/gcc/arm-none-eabi/4.4.1/thumb2\libgcc.a
LOAD c:/actel/libero_v9.1/softconsole/sourcery-g++/bin/../lib/gcc/arm-none-eabi/4.4.1/../../../../arm-none-eabi/lib/thumb2\libm.a
END GROUP
                0x00000000                __DYNAMIC = 0x0
                0x20000000                RAM_START_ADDRESS = 0x20000000
                0x00010000                RAM_SIZE = 0x10000
                0x00002000                MAIN_STACK_SIZE = 0x2000
                0x00001000                PROCESS_STACK_SIZE = 0x1000
                0x20010000                PROVIDE (__main_stack_start, (RAM_START_ADDRESS + RAM_SIZE))
                0x2000e000                PROVIDE (__process_stack_start, (__main_stack_start - MAIN_STACK_SIZE))
                0x20010000                PROVIDE (_estack, __main_stack_start)
                0x00000001                PROVIDE (__mirrored_nvm, 0x1)

.init           0x00000000      0x470 load address 0x60000000
 *(.isr_vector)
 .isr_vector    0x00000000      0x470 C:/Users/kylebs/Desktop/FreeRTOS-lwIP-takeDeux/FreeRTOS-lwIP/Webserver_uIPRTOS_SC_DF/EVAL_KIT/SF_Webserver_Demo/SoftConsole/Webserver_MSS_CM3_0/Webserver_MSS_CM3_0_hw_platform/Debug/CMSIS/startup_gcc/startup_a2fxxxm3.o
                0x00000000                g_pfnVectors
                0x00000298                Reset_Handler
                0x00000308                NMI_Handler
                0x0000030a                HardFault_Handler
                0x0000030c                MemManage_Handler
                0x0000030e                BusFault_Handler
                0x00000310                UsageFault_Handler
                0x00000314                DebugMon_Handler
                0x0000031a                WdogWakeup_IRQHandler
                0x0000031c                BrownOut_1_5V_IRQHandler
                0x0000031e                BrownOut_3_3V_IRQHandler
                0x00000320                RTC_Match_IRQHandler
                0x00000322                RTCIF_Pub_IRQHandler
                0x00000326                IAP_IRQHandler
                0x00000328                ENVM0_IRQHandler
                0x0000032a                ENVM1_IRQHandler
                0x00000338                I2C0_SMBAlert_IRQHandler
                0x0000033a                I2C0_SMBus_IRQHandler
                0x0000033e                I2C1_SMBAlert_IRQHandler
                0x00000340                I2C1_SMBus_IRQHandler
                0x00000342                Timer1_IRQHandler
                0x00000344                Timer2_IRQHandler
                0x00000346                PLL_Lock_IRQHandler
                0x00000348                PLL_LockLost_IRQHandler
                0x0000034a                CommError_IRQHandler
                0x0000034e                GPIO0_IRQHandler
                0x00000352                GPIO2_IRQHandler
                0x00000354                GPIO3_IRQHandler
                0x00000356                GPIO4_IRQHandler
                0x00000358                GPIO5_IRQHandler
                0x0000035a                GPIO6_IRQHandler
                0x0000035c                GPIO7_IRQHandler
                0x0000035e                GPIO8_IRQHandler
                0x00000360                GPIO9_IRQHandler
                0x00000362                GPIO10_IRQHandler
                0x00000364                GPIO11_IRQHandler
                0x00000366                GPIO12_IRQHandler
                0x00000368                GPIO13_IRQHandler
                0x0000036a                GPIO14_IRQHandler
                0x0000036c                GPIO15_IRQHandler
                0x0000036e                GPIO16_IRQHandler
                0x00000370                GPIO17_IRQHandler
                0x00000372                GPIO18_IRQHandler
                0x00000374                GPIO19_IRQHandler
                0x00000376                GPIO20_IRQHandler
                0x00000378                GPIO21_IRQHandler
                0x0000037a                GPIO22_IRQHandler
                0x0000037c                GPIO23_IRQHandler
                0x0000037e                GPIO24_IRQHandler
                0x00000380                GPIO25_IRQHandler
                0x00000382                GPIO26_IRQHandler
                0x00000384                GPIO27_IRQHandler
                0x00000386                GPIO28_IRQHandler
                0x00000388                GPIO29_IRQHandler
                0x0000038a                GPIO30_IRQHandler
                0x0000038c                GPIO31_IRQHandler
                0x0000038e                ACE_PC0_Flag0_IRQHandler
                0x00000390                ACE_PC0_Flag1_IRQHandler
                0x00000392                ACE_PC0_Flag2_IRQHandler
                0x00000394                ACE_PC0_Flag3_IRQHandler
                0x00000396                ACE_PC1_Flag0_IRQHandler
                0x00000398                ACE_PC1_Flag1_IRQHandler
                0x0000039a                ACE_PC1_Flag2_IRQHandler
                0x0000039c                ACE_PC1_Flag3_IRQHandler
                0x0000039e                ACE_PC2_Flag0_IRQHandler
                0x000003a0                ACE_PC2_Flag1_IRQHandler
                0x000003a2                ACE_PC2_Flag2_IRQHandler
                0x000003a4                ACE_PC2_Flag3_IRQHandler
                0x000003a6                ACE_ADC0_DataValid_IRQHandler
                0x000003a8                ACE_ADC1_DataValid_IRQHandler
                0x000003aa                ACE_ADC2_DataValid_IRQHandler
                0x000003ac                ACE_ADC0_CalDone_IRQHandler
                0x000003ae                ACE_ADC1_CalDone_IRQHandler
                0x000003b0                ACE_ADC2_CalDone_IRQHandler
                0x000003b2                ACE_ADC0_CalStart_IRQHandler
                0x000003b4                ACE_ADC1_CalStart_IRQHandler
                0x000003b6                ACE_ADC2_CalStart_IRQHandler
                0x000003b8                ACE_Comp0_Fall_IRQHandler
                0x000003ba                ACE_Comp1_Fall_IRQHandler
                0x000003bc                ACE_Comp2_Fall_IRQHandler
                0x000003be                ACE_Comp3_Fall_IRQHandler
                0x000003c0                ACE_Comp4_Fall_IRQHandler
                0x000003c2                ACE_Comp5_Fall_IRQHandler
                0x000003c4                ACE_Comp6_Fall_IRQHandler
                0x000003c6                ACE_Comp7_Fall_IRQHandler
                0x000003c8                ACE_Comp8_Fall_IRQHandler
                0x000003ca                ACE_Comp9_Fall_IRQHandler
                0x000003cc                ACE_Comp10_Fall_IRQHandler
                0x000003ce                ACE_Comp11_Fall_IRQHandler
                0x000003d0                ACE_Comp0_Rise_IRQHandler
                0x000003d2                ACE_Comp1_Rise_IRQHandler
                0x000003d4                ACE_Comp2_Rise_IRQHandler
                0x000003d6                ACE_Comp3_Rise_IRQHandler
                0x000003d8                ACE_Comp4_Rise_IRQHandler
                0x000003da                ACE_Comp5_Rise_IRQHandler
                0x000003dc                ACE_Comp6_Rise_IRQHandler
                0x000003de                ACE_Comp7_Rise_IRQHandler
                0x000003e0                ACE_Comp8_Rise_IRQHandler
                0x000003e2                ACE_Comp9_Rise_IRQHandler
                0x000003e4                ACE_Comp10_Rise_IRQHandler
                0x000003e6                ACE_Comp11_Rise_IRQHandler
                0x000003e8                ACE_ADC0_FifoFull_IRQHandler
                0x000003ea                ACE_ADC0_FifoAFull_IRQHandler
                0x000003ec                ACE_ADC0_FifoEmpty_IRQHandler
                0x000003ee                ACE_ADC1_FifoFull_IRQHandler
                0x000003f0                ACE_ADC1_FifoAFull_IRQHandler
                0x000003f2                ACE_ADC1_FifoEmpty_IRQHandler
                0x000003f4                ACE_ADC2_FifoFull_IRQHandler
                0x000003f6                ACE_ADC2_FifoAFull_IRQHandler
                0x000003f8                ACE_ADC2_FifoEmpty_IRQHandler
                0x000003fa                ACE_PPE_Flag0_IRQHandler
                0x000003fc                ACE_PPE_Flag1_IRQHandler
                0x000003fe                ACE_PPE_Flag2_IRQHandler
                0x00000400                ACE_PPE_Flag3_IRQHandler
                0x00000402                ACE_PPE_Flag4_IRQHandler
                0x00000404                ACE_PPE_Flag5_IRQHandler
                0x00000406                ACE_PPE_Flag6_IRQHandler
                0x00000408                ACE_PPE_Flag7_IRQHandler
                0x0000040a                ACE_PPE_Flag8_IRQHandler
                0x0000040c                ACE_PPE_Flag9_IRQHandler
                0x0000040e                ACE_PPE_Flag10_IRQHandler
                0x00000410                ACE_PPE_Flag11_IRQHandler
                0x00000412                ACE_PPE_Flag12_IRQHandler
                0x00000414                ACE_PPE_Flag13_IRQHandler
                0x00000416                ACE_PPE_Flag14_IRQHandler
                0x00000418                ACE_PPE_Flag15_IRQHandler
                0x0000041a                ACE_PPE_Flag16_IRQHandler
                0x0000041c                ACE_PPE_Flag17_IRQHandler
                0x0000041e                ACE_PPE_Flag18_IRQHandler
                0x00000420                ACE_PPE_Flag19_IRQHandler
                0x00000422                ACE_PPE_Flag20_IRQHandler
                0x00000424                ACE_PPE_Flag21_IRQHandler
                0x00000426                ACE_PPE_Flag22_IRQHandler
                0x00000428                ACE_PPE_Flag23_IRQHandler
                0x0000042a                ACE_PPE_Flag24_IRQHandler
                0x0000042c                ACE_PPE_Flag25_IRQHandler
                0x0000042e                ACE_PPE_Flag26_IRQHandler
                0x00000430                ACE_PPE_Flag27_IRQHandler
                0x00000432                ACE_PPE_Flag28_IRQHandler
                0x00000434                ACE_PPE_Flag29_IRQHandler
                0x00000436                ACE_PPE_Flag30_IRQHandler
                0x00000438                ACE_PPE_Flag31_IRQHandler
 *sys_boot.o(.text)
                0x00000470                . = ALIGN (0x4)

.text           0x00000470    0x1b024 load address 0x60000470
 CREATE_OBJECT_SYMBOLS
                0x60000470                __text_load = LOADADDR (.text)
                0x00000470                __text_start = .
 *(.text .text.* .gnu.linkonce.t.*)
 .text          0x00000470       0x30 c:/actel/libero_v9.1/softconsole/sourcery-g++/bin/../lib/gcc/arm-none-eabi/4.4.1/thumb2/crtbegin.o
 .text.NVIC_EnableIRQ
                0x000004a0       0x38 ./main.o
 .text.NVIC_ClearPendingIRQ
                0x000004d8       0x3c ./main.o
 .text.NVIC_SetPriority
                0x00000514       0x5c ./main.o
 .text.vApplicationMallocFailedHook
                0x00000570        0x8 ./main.o
                0x00000570                vApplicationMallocFailedHook
 .text.ulGetRunTimeCounterValue
                0x00000578       0x10 ./main.o
                0x00000578                ulGetRunTimeCounterValue
 .text.vApplicationStackOverflowHook
                0x00000588        0xc ./main.o
                0x00000588                vApplicationStackOverflowHook
 .text.vMainConfigureTimerForRunTimeStats
                0x00000594        0xc ./main.o
                0x00000594                vMainConfigureTimerForRunTimeStats
 .text.GPIO1_IRQHandler
                0x000005a0       0x60 ./main.o
                0x000005a0                GPIO1_IRQHandler
 .text.Fabric_IRQHandler
                0x00000600       0x50 ./main.o
                0x00000600                Fabric_IRQHandler
 .text.init_system
                0x00000650       0x30 ./main.o
                0x00000650                init_system
 .text.main     0x00000680      0x334 ./main.o
                0x00000680                main
 .text.webclient_init
                0x000009b4        0xc ./webclient/webclient.o
                0x000009b4                webclient_init
 .text.init_connection
                0x000009c0       0x7c ./webclient/webclient.o
 .text.webclient_get
                0x00000a3c       0xdc ./webclient/webclient.o
                0x00000a3c                webclient_get
 .text.webclient_get_custom
                0x00000b18       0xa4 ./webclient/webclient.o
                0x00000b18                webclient_get_custom
 .text.copy_string
                0x00000bbc       0x2c ./webclient/webclient.o
 .text.senddata
                0x00000be8      0x148 ./webclient/webclient.o
 .text.acked    0x00000d30       0x80 ./webclient/webclient.o
 .text.parse_statusline
                0x00000db0      0x1c4 ./webclient/webclient.o
 .text.casecmp  0x00000f74       0x90 ./webclient/webclient.o
 .text.parse_headers
                0x00001004      0x258 ./webclient/webclient.o
 .text.newdata  0x0000125c       0x8c ./webclient/webclient.o
 .text.webclient_appcall
                0x000012e8      0x1bc ./webclient/webclient.o
                0x000012e8                webclient_appcall
 .text.uip_add32
                0x000014a4      0x14c ./uip/uip.o
                0x000014a4                uip_add32
 .text.chksum   0x000015f0       0x98 ./uip/uip.o
 .text.uip_ipchksum
                0x00001688       0x3c ./uip/uip.o
                0x00001688                uip_ipchksum
 .text.upper_layer_chksum
                0x000016c4       0x7c ./uip/uip.o
 .text.uip_tcpchksum
                0x00001740       0x14 ./uip/uip.o
                0x00001740                uip_tcpchksum
 .text.uip_udpchksum
                0x00001754       0x14 ./uip/uip.o
                0x00001754                uip_udpchksum
 .text.uip_init
                0x00001768      0x124 ./uip/uip.o
                0x00001768                uip_init
 .text.uip_connect
                0x0000188c      0x1dc ./uip/uip.o
                0x0000188c                uip_connect
 .text.uip_udp_new
                0x00001a68      0x1a4 ./uip/uip.o
                0x00001a68                uip_udp_new
 .text.uip_add_rcv_nxt
                0x00001c0c       0x84 ./uip/uip.o
 .text.uip_process
                0x00001c90     0x1bfc ./uip/uip.o
                0x00001c90                uip_process
 .text.htons    0x0000388c       0x30 ./uip/uip.o
                0x0000388c                htons
 .text.uip_send
                0x000038bc       0x54 ./uip/uip.o
                0x000038bc                uip_send
 .text.uip_arp_timer
                0x00003910       0xc0 ./uip/uip_arp.o
                0x00003910                uip_arp_timer
 .text.uip_arp_update
                0x000039d0      0x264 ./uip/uip_arp.o
 .text.uip_arp_arpin
                0x00003c34      0x18c ./uip/uip_arp.o
                0x00003c34                uip_arp_arpin
 .text.uip_arp_out
                0x00003dc0      0x2b8 ./uip/uip_arp.o
                0x00003dc0                uip_arp_out
 .text.uiplib_ipaddrconv
                0x00004078       0xbc ./uip/uiplib.o
                0x00004078                uiplib_ipaddrconv
 .text.resolv_appcall
                0x00004134        0xc ./resolv/resolv.o
                0x00004134                resolv_appcall
 .text.resolv_query
                0x00004140      0x15c ./resolv/resolv.o
                0x00004140                resolv_query
 .text.resolv_lookup
                0x0000429c       0x90 ./resolv/resolv.o
                0x0000429c                resolv_lookup
 .text.resolv_conf
                0x0000432c       0x48 ./resolv/resolv.o
                0x0000432c                resolv_conf
 .text.resolv_init
                0x00004374       0x68 ./resolv/resolv.o
                0x00004374                resolv_init
 .text.send_arp_reply
                0x000043dc       0xdc ./mac/tcpip.o
                0x000043dc                send_arp_reply
 .text.get_checksum
                0x000044b8       0xf4 ./mac/tcpip.o
                0x000044b8                get_checksum
 .text.fix_checksum
                0x000045ac       0x54 ./mac/tcpip.o
                0x000045ac                fix_checksum
 .text.check_checksum
                0x00004600       0x64 ./mac/tcpip.o
                0x00004600                check_checksum
 .text.send_icmp_echo_reply
                0x00004664      0x118 ./mac/tcpip.o
                0x00004664                send_icmp_echo_reply
 .text.send_bootp_packet
                0x0000477c      0x374 ./mac/tcpip.o
                0x0000477c                send_bootp_packet
 .text.send_dhcp_server_packet
                0x00004af0      0x5dc ./mac/tcpip.o
                0x00004af0                send_dhcp_server_packet
 .text.process_udp_packet
                0x000050cc       0x4c ./mac/tcpip.o
                0x000050cc                process_udp_packet
 .text.send_tcp_packet
                0x00005118      0x2ec ./mac/tcpip.o
                0x00005118                send_tcp_packet
 .text.tcp_init
                0x00005404       0x4c ./mac/tcpip.o
                0x00005404                tcp_init
 .text.process_icmp_packet
                0x00005450       0x70 ./mac/tcpip.o
                0x00005450                process_icmp_packet
 .text.process_tcp_packet
                0x000054c0      0x4d0 ./mac/tcpip.o
                0x000054c0                process_tcp_packet
 .text.process_ip_packet
                0x00005990       0xc8 ./mac/tcpip.o
                0x00005990                process_ip_packet
 .text.process_arp_packet
                0x00005a58       0xbc ./mac/tcpip.o
                0x00005a58                process_arp_packet
 .text.process_packet
                0x00005b14       0x54 ./mac/tcpip.o
                0x00005b14                process_packet
 .text.jsmn_alloc_token
                0x00005b68       0x5c ./jsmn/jsmn.o
 .text.jsmn_fill_token
                0x00005bc4       0x34 ./jsmn/jsmn.o
 .text.jsmn_parse_primitive
                0x00005bf8       0xf8 ./jsmn/jsmn.o
 .text.jsmn_parse_string
                0x00005cf0      0x22c ./jsmn/jsmn.o
 .text.jsmn_parse
                0x00005f1c      0x288 ./jsmn/jsmn.o
                0x00005f1c                jsmn_parse
 .text.jsmn_init
                0x000061a4       0x2c ./jsmn/jsmn.o
                0x000061a4                jsmn_init
 .text.NVIC_EnableIRQ
                0x000061d0       0x38 ./application_tasks/controller_task.o
 .text.delay    0x00006208       0x24 ./application_tasks/controller_task.o
                0x00006208                delay
 .text.init_controller
                0x0000622c      0x100 ./application_tasks/controller_task.o
                0x0000622c                init_controller
 .text.controller_delegate_control
                0x0000632c      0x1e0 ./application_tasks/controller_task.o
                0x0000632c                controller_delegate_control
 .text.vTask_controller
                0x0000650c      0x1c8 ./application_tasks/controller_task.o
                0x0000650c                vTask_controller
 .text.do_next_instruction
                0x000066d4       0x80 ./application_tasks/http_task.o
                0x000066d4                do_next_instruction
 .text.init_http
                0x00006754      0x134 ./application_tasks/http_task.o
                0x00006754                init_http
 .text.vTask_http
                0x00006888      0x224 ./application_tasks/http_task.o
                0x00006888                vTask_http
 .text.uip_log  0x00006aac       0x20 ./application_tasks/http_task.o
                0x00006aac                uip_log
 .text.webclient_closed
                0x00006acc       0x14 ./application_tasks/http_task.o
                0x00006acc                webclient_closed
 .text.webclient_aborted
                0x00006ae0       0x20 ./application_tasks/http_task.o
                0x00006ae0                webclient_aborted
 .text.webclient_timedout
                0x00006b00       0x20 ./application_tasks/http_task.o
                0x00006b00                webclient_timedout
 .text.webclient_connected
                0x00006b20       0x14 ./application_tasks/http_task.o
                0x00006b20                webclient_connected
 .text.webclient_datahandler
                0x00006b34      0x110 ./application_tasks/http_task.o
                0x00006b34                webclient_datahandler
 .text.path_to_instructions
                0x00006c44      0x25c ./application_tasks/http_task.o
                0x00006c44                path_to_instructions
 .text.parse_json
                0x00006ea0      0x23c ./application_tasks/http_task.o
                0x00006ea0                parse_json
 .text.uIP_init
                0x000070dc      0x330 ./application_tasks/http_task.o
                0x000070dc                uIP_init
 .text.init_mac
                0x0000740c      0x1d8 ./application_tasks/http_task.o
                0x0000740c                init_mac
 .text.init_lcd
                0x000075e4       0xa0 ./application_tasks/lcd_task.o
                0x000075e4                init_lcd
 .text.vTask_lcd
                0x00007684      0x1b4 ./application_tasks/lcd_task.o
                0x00007684                vTask_lcd
 .text._to_lcd_uart
                0x00007838       0x7c ./application_tasks/lcd_task.o
                0x00007838                _to_lcd_uart
 .text.init_nunchuck
                0x000078b4       0x88 ./application_tasks/nunchuck_task.o
                0x000078b4                init_nunchuck
 .text.vTask_nunchuck
                0x0000793c      0x6d0 ./application_tasks/nunchuck_task.o
                0x0000793c                vTask_nunchuck
 .text.vListInitialise
                0x0000800c       0x48 ./FreeRTOS/list.o
                0x0000800c                vListInitialise
 .text.vListInitialiseItem
                0x00008054       0x1c ./FreeRTOS/list.o
                0x00008054                vListInitialiseItem
 .text.vListInsertEnd
                0x00008070       0x50 ./FreeRTOS/list.o
                0x00008070                vListInsertEnd
 .text.vListInsert
                0x000080c0       0x78 ./FreeRTOS/list.o
                0x000080c0                vListInsert
 .text.vListRemove
                0x00008138       0x54 ./FreeRTOS/list.o
                0x00008138                vListRemove
 .text.xQueueCreate
                0x0000818c       0xe0 ./FreeRTOS/queue.o
                0x0000818c                xQueueCreate
 .text.xQueueGenericSend
                0x0000826c      0x158 ./FreeRTOS/queue.o
                0x0000826c                xQueueGenericSend
 .text.xQueueGenericSendFromISR
                0x000083c4       0xdc ./FreeRTOS/queue.o
                0x000083c4                xQueueGenericSendFromISR
 .text.xQueueGenericReceive
                0x000084a0      0x1c8 ./FreeRTOS/queue.o
                0x000084a0                xQueueGenericReceive
 .text.prvCopyDataToQueue
                0x00008668       0xcc ./FreeRTOS/queue.o
 .text.prvCopyDataFromQueue
                0x00008734       0x50 ./FreeRTOS/queue.o
 .text.prvUnlockQueue
                0x00008784       0xa0 ./FreeRTOS/queue.o
 .text.prvIsQueueEmpty
                0x00008824       0x2c ./FreeRTOS/queue.o
 .text.prvIsQueueFull
                0x00008850       0x30 ./FreeRTOS/queue.o
 .text.vQueueWaitForMessageRestricted
                0x00008880       0x60 ./FreeRTOS/queue.o
                0x00008880                vQueueWaitForMessageRestricted
 .text.xTaskGenericCreate
                0x000088e0      0x1fc ./FreeRTOS/tasks.o
                0x000088e0                xTaskGenericCreate
 .text.vTaskDelay
                0x00008adc       0x64 ./FreeRTOS/tasks.o
                0x00008adc                vTaskDelay
 .text.vTaskSuspend
                0x00008b40       0xc0 ./FreeRTOS/tasks.o
                0x00008b40                vTaskSuspend
 .text.xTaskIsTaskSuspended
                0x00008c00       0x60 ./FreeRTOS/tasks.o
                0x00008c00                xTaskIsTaskSuspended
 .text.vTaskResume
                0x00008c60       0xbc ./FreeRTOS/tasks.o
                0x00008c60                vTaskResume
 .text.vTaskStartScheduler
                0x00008d1c       0x98 ./FreeRTOS/tasks.o
                0x00008d1c                vTaskStartScheduler
 .text.vTaskSuspendAll
                0x00008db4       0x24 ./FreeRTOS/tasks.o
                0x00008db4                vTaskSuspendAll
 .text.xTaskResumeAll
                0x00008dd8      0x16c ./FreeRTOS/tasks.o
                0x00008dd8                xTaskResumeAll
 .text.xTaskGetTickCount
                0x00008f44       0x28 ./FreeRTOS/tasks.o
                0x00008f44                xTaskGetTickCount
 .text.vTaskIncrementTick
                0x00008f6c      0x1dc ./FreeRTOS/tasks.o
                0x00008f6c                vTaskIncrementTick
 .text.vTaskSwitchContext
                0x00009148      0x19c ./FreeRTOS/tasks.o
                0x00009148                vTaskSwitchContext
 .text.vTaskPlaceOnEventList
                0x000092e4       0x90 ./FreeRTOS/tasks.o
                0x000092e4                vTaskPlaceOnEventList
 .text.vTaskPlaceOnEventListRestricted
                0x00009374       0x68 ./FreeRTOS/tasks.o
                0x00009374                vTaskPlaceOnEventListRestricted
 .text.xTaskRemoveFromEventList
                0x000093dc       0xd4 ./FreeRTOS/tasks.o
                0x000093dc                xTaskRemoveFromEventList
 .text.vTaskSetTimeOutState
                0x000094b0       0x40 ./FreeRTOS/tasks.o
                0x000094b0                vTaskSetTimeOutState
 .text.xTaskCheckForTimeOut
                0x000094f0       0xd4 ./FreeRTOS/tasks.o
                0x000094f0                xTaskCheckForTimeOut
 .text.vTaskMissedYield
                0x000095c4       0x18 ./FreeRTOS/tasks.o
                0x000095c4                vTaskMissedYield
 .text.prvIdleTask
                0x000095dc       0x24 ./FreeRTOS/tasks.o
 .text.prvInitialiseTCBVariables
                0x00009600       0x88 ./FreeRTOS/tasks.o
 .text.prvInitialiseTaskLists
                0x00009688       0xa4 ./FreeRTOS/tasks.o
 .text.prvCheckTasksWaitingTermination
                0x0000972c       0x94 ./FreeRTOS/tasks.o
 .text.prvAddCurrentTaskToDelayedList
                0x000097c0       0x90 ./FreeRTOS/tasks.o
 .text.prvAllocateTCBAndStack
                0x00009850       0x74 ./FreeRTOS/tasks.o
 .text.prvDeleteTCB
                0x000098c4       0x20 ./FreeRTOS/tasks.o
 .text.xTaskGetCurrentTaskHandle
                0x000098e4       0x20 ./FreeRTOS/tasks.o
                0x000098e4                xTaskGetCurrentTaskHandle
 .text.xTaskGetSchedulerState
                0x00009904       0x48 ./FreeRTOS/tasks.o
                0x00009904                xTaskGetSchedulerState
 .text.vTaskPriorityInherit
                0x0000994c       0xec ./FreeRTOS/tasks.o
                0x0000994c                vTaskPriorityInherit
 .text.vTaskPriorityDisinherit
                0x00009a38       0x94 ./FreeRTOS/tasks.o
                0x00009a38                vTaskPriorityDisinherit
 .text.xTimerCreateTimerTask
                0x00009acc       0x74 ./FreeRTOS/timers.o
                0x00009acc                xTimerCreateTimerTask
 .text.xTimerGenericCommand
                0x00009b40       0xb4 ./FreeRTOS/timers.o
                0x00009b40                xTimerGenericCommand
 .text.prvProcessExpiredTimer
                0x00009bf4       0x88 ./FreeRTOS/timers.o
 .text.prvTimerTask
                0x00009c7c       0x28 ./FreeRTOS/timers.o
 .text.prvProcessTimerOrBlockTask
                0x00009ca4       0x84 ./FreeRTOS/timers.o
 .text.prvGetNextExpireTime
                0x00009d28       0x50 ./FreeRTOS/timers.o
 .text.prvSampleTimeNow
                0x00009d78       0x5c ./FreeRTOS/timers.o
 .text.prvInsertTimerInActiveList
                0x00009dd4       0x98 ./FreeRTOS/timers.o
 .text.prvProcessReceivedCommands
                0x00009e6c      0x11c ./FreeRTOS/timers.o
 .text.prvSwitchTimerLists
                0x00009f88       0xf0 ./FreeRTOS/timers.o
 .text.prvCheckForValidListAndQueue
                0x0000a078       0x70 ./FreeRTOS/timers.o
 .text.pvPortMalloc
                0x0000a0e8       0x30 ./FreeRTOS/portable/MemMang/heap_3.o
                0x0000a0e8                pvPortMalloc
 .text.vPortFree
                0x0000a118       0x24 ./FreeRTOS/portable/MemMang/heap_3.o
                0x0000a118                vPortFree
 .text.pxPortInitialiseStack
                0x0000a13c       0x60 ./FreeRTOS/portable/GCC/ARM_CM3/port.o
                0x0000a13c                pxPortInitialiseStack
 .text.SVC_Handler
                0x0000a19c       0x20 ./FreeRTOS/portable/GCC/ARM_CM3/port.o
                0x0000a19c                SVC_Handler
 .text.vPortStartFirstTask
                0x0000a1bc       0x14 ./FreeRTOS/portable/GCC/ARM_CM3/port.o
                0x0000a1bc                vPortStartFirstTask
 .text.xPortStartScheduler
                0x0000a1d0       0x54 ./FreeRTOS/portable/GCC/ARM_CM3/port.o
                0x0000a1d0                xPortStartScheduler
 .text.vPortYieldFromISR
                0x0000a224       0x18 ./FreeRTOS/portable/GCC/ARM_CM3/port.o
                0x0000a224                vPortYieldFromISR
 .text.vPortEnterCritical
                0x0000a23c       0x2c ./FreeRTOS/portable/GCC/ARM_CM3/port.o
                0x0000a23c                vPortEnterCritical
 .text.vPortExitCritical
                0x0000a268       0x38 ./FreeRTOS/portable/GCC/ARM_CM3/port.o
                0x0000a268                vPortExitCritical
 .text.PendSV_Handler
                0x0000a2a0       0x3c ./FreeRTOS/portable/GCC/ARM_CM3/port.o
                0x0000a2a0                PendSV_Handler
 .text.SysTick_Handler
                0x0000a2dc       0x38 ./FreeRTOS/portable/GCC/ARM_CM3/port.o
                0x0000a2dc                SysTick_Handler
 .text.prvSetupTimerInterrupt
                0x0000a314       0x40 ./FreeRTOS/portable/GCC/ARM_CM3/port.o
 .text.NVIC_EnableIRQ
                0x0000a354       0x38 ./BSP/i2c_driver/i2c.o
 .text.NVIC_DisableIRQ
                0x0000a38c       0x3c ./BSP/i2c_driver/i2c.o
 .text.NVIC_ClearPendingIRQ
                0x0000a3c8       0x3c ./BSP/i2c_driver/i2c.o
 .text.MSS_I2C_init
                0x0000a404      0x19c ./BSP/i2c_driver/i2c.o
                0x0000a404                MSS_I2C_init
 .text.MSS_I2C_write
                0x0000a5a0       0xc4 ./BSP/i2c_driver/i2c.o
                0x0000a5a0                MSS_I2C_write
 .text.MSS_I2C_read
                0x0000a664       0xc8 ./BSP/i2c_driver/i2c.o
                0x0000a664                MSS_I2C_read
 .text.MSS_I2C_wait_complete
                0x0000a72c       0x48 ./BSP/i2c_driver/i2c.o
                0x0000a72c                MSS_I2C_wait_complete
 .text.mss_i2c_isr
                0x0000a774      0x77c ./BSP/i2c_driver/i2c.o
 .text.disable_interrupts
                0x0000aef0       0x1c ./BSP/i2c_driver/i2c.o
 .text.restore_interrupts
                0x0000af0c       0x18 ./BSP/i2c_driver/i2c.o
 .text.I2C0_IRQHandler
                0x0000af24       0x2c ./BSP/i2c_driver/i2c.o
                0x0000af24                I2C0_IRQHandler
 .text.I2C1_IRQHandler
                0x0000af50       0x2c ./BSP/i2c_driver/i2c.o
                0x0000af50                I2C1_IRQHandler
 .text._close   0x0000af7c       0x18 C:/Users/kylebs/Desktop/FreeRTOS-lwIP-takeDeux/FreeRTOS-lwIP/Webserver_uIPRTOS_SC_DF/EVAL_KIT/SF_Webserver_Demo/SoftConsole/Webserver_MSS_CM3_0/Webserver_MSS_CM3_0_hw_platform/Debug/CMSIS/startup_gcc/newlib_stubs.o
                0x0000af7c                _close
 .text._exit    0x0000af94        0xc C:/Users/kylebs/Desktop/FreeRTOS-lwIP-takeDeux/FreeRTOS-lwIP/Webserver_uIPRTOS_SC_DF/EVAL_KIT/SF_Webserver_Demo/SoftConsole/Webserver_MSS_CM3_0/Webserver_MSS_CM3_0_hw_platform/Debug/CMSIS/startup_gcc/newlib_stubs.o
                0x0000af94                _exit
 .text._fstat   0x0000afa0       0x24 C:/Users/kylebs/Desktop/FreeRTOS-lwIP-takeDeux/FreeRTOS-lwIP/Webserver_uIPRTOS_SC_DF/EVAL_KIT/SF_Webserver_Demo/SoftConsole/Webserver_MSS_CM3_0/Webserver_MSS_CM3_0_hw_platform/Debug/CMSIS/startup_gcc/newlib_stubs.o
                0x0000afa0                _fstat
 .text._isatty  0x0000afc4       0x18 C:/Users/kylebs/Desktop/FreeRTOS-lwIP-takeDeux/FreeRTOS-lwIP/Webserver_uIPRTOS_SC_DF/EVAL_KIT/SF_Webserver_Demo/SoftConsole/Webserver_MSS_CM3_0/Webserver_MSS_CM3_0_hw_platform/Debug/CMSIS/startup_gcc/newlib_stubs.o
                0x0000afc4                _isatty
 .text._lseek   0x0000afdc       0x1c C:/Users/kylebs/Desktop/FreeRTOS-lwIP-takeDeux/FreeRTOS-lwIP/Webserver_uIPRTOS_SC_DF/EVAL_KIT/SF_Webserver_Demo/SoftConsole/Webserver_MSS_CM3_0/Webserver_MSS_CM3_0_hw_platform/Debug/CMSIS/startup_gcc/newlib_stubs.o
                0x0000afdc                _lseek
 .text._read    0x0000aff8       0x1c C:/Users/kylebs/Desktop/FreeRTOS-lwIP-takeDeux/FreeRTOS-lwIP/Webserver_uIPRTOS_SC_DF/EVAL_KIT/SF_Webserver_Demo/SoftConsole/Webserver_MSS_CM3_0/Webserver_MSS_CM3_0_hw_platform/Debug/CMSIS/startup_gcc/newlib_stubs.o
                0x0000aff8                _read
 .text._write_r
                0x0000b014       0x64 C:/Users/kylebs/Desktop/FreeRTOS-lwIP-takeDeux/FreeRTOS-lwIP/Webserver_uIPRTOS_SC_DF/EVAL_KIT/SF_Webserver_Demo/SoftConsole/Webserver_MSS_CM3_0/Webserver_MSS_CM3_0_hw_platform/Debug/CMSIS/startup_gcc/newlib_stubs.o
                0x0000b014                _write_r
 .text._sbrk    0x0000b078       0x94 C:/Users/kylebs/Desktop/FreeRTOS-lwIP-takeDeux/FreeRTOS-lwIP/Webserver_uIPRTOS_SC_DF/EVAL_KIT/SF_Webserver_Demo/SoftConsole/Webserver_MSS_CM3_0/Webserver_MSS_CM3_0_hw_platform/Debug/CMSIS/startup_gcc/newlib_stubs.o
                0x0000b078                _sbrk
 .text.PLOTTER_printCoord
                0x0000b10c      0x260 C:\Users\kylebs\Desktop\FreeRTOS-lwIP-takeDeux\FreeRTOS-lwIP\Webserver_uIPRTOS_SC_DF\EVAL_KIT\SF_Webserver_Demo\SoftConsole\Webserver_MSS_CM3_0\Webserver_MSS_CM3_0_hw_platform\Debug\libWebserver_MSS_CM3_0_hw_platform.a(plotter_platform.o)
                0x0000b10c                PLOTTER_printCoord
 .text.NVIC_ClearPendingIRQ
                0x0000b36c       0x3c C:\Users\kylebs\Desktop\FreeRTOS-lwIP-takeDeux\FreeRTOS-lwIP\Webserver_uIPRTOS_SC_DF\EVAL_KIT\SF_Webserver_Demo\SoftConsole\Webserver_MSS_CM3_0\Webserver_MSS_CM3_0_hw_platform\Debug\libWebserver_MSS_CM3_0_hw_platform.a(mss_uart.o)
 .text.MSS_UART_init
                0x0000b3a8      0x204 C:\Users\kylebs\Desktop\FreeRTOS-lwIP-takeDeux\FreeRTOS-lwIP\Webserver_uIPRTOS_SC_DF\EVAL_KIT\SF_Webserver_Demo\SoftConsole\Webserver_MSS_CM3_0\Webserver_MSS_CM3_0_hw_platform\Debug\libWebserver_MSS_CM3_0_hw_platform.a(mss_uart.o)
                0x0000b3a8                MSS_UART_init
 .text.MSS_UART_polled_tx
                0x0000b5ac       0xe4 C:\Users\kylebs\Desktop\FreeRTOS-lwIP-takeDeux\FreeRTOS-lwIP\Webserver_uIPRTOS_SC_DF\EVAL_KIT\SF_Webserver_Demo\SoftConsole\Webserver_MSS_CM3_0\Webserver_MSS_CM3_0_hw_platform\Debug\libWebserver_MSS_CM3_0_hw_platform.a(mss_uart.o)
                0x0000b5ac                MSS_UART_polled_tx
 .text.MSS_UART_isr
                0x0000b690      0x11c C:\Users\kylebs\Desktop\FreeRTOS-lwIP-takeDeux\FreeRTOS-lwIP\Webserver_uIPRTOS_SC_DF\EVAL_KIT\SF_Webserver_Demo\SoftConsole\Webserver_MSS_CM3_0\Webserver_MSS_CM3_0_hw_platform\Debug\libWebserver_MSS_CM3_0_hw_platform.a(mss_uart.o)
 .text.default_tx_handler
                0x0000b7ac      0x108 C:\Users\kylebs\Desktop\FreeRTOS-lwIP-takeDeux\FreeRTOS-lwIP\Webserver_uIPRTOS_SC_DF\EVAL_KIT\SF_Webserver_Demo\SoftConsole\Webserver_MSS_CM3_0\Webserver_MSS_CM3_0_hw_platform\Debug\libWebserver_MSS_CM3_0_hw_platform.a(mss_uart.o)
 .text.UART0_IRQHandler
                0x0000b8b4       0x2c C:\Users\kylebs\Desktop\FreeRTOS-lwIP-takeDeux\FreeRTOS-lwIP\Webserver_uIPRTOS_SC_DF\EVAL_KIT\SF_Webserver_Demo\SoftConsole\Webserver_MSS_CM3_0\Webserver_MSS_CM3_0_hw_platform\Debug\libWebserver_MSS_CM3_0_hw_platform.a(mss_uart.o)
                0x0000b8b4                UART0_IRQHandler
 .text.UART1_IRQHandler
                0x0000b8e0       0x2c C:\Users\kylebs\Desktop\FreeRTOS-lwIP-takeDeux\FreeRTOS-lwIP\Webserver_uIPRTOS_SC_DF\EVAL_KIT\SF_Webserver_Demo\SoftConsole\Webserver_MSS_CM3_0\Webserver_MSS_CM3_0_hw_platform\Debug\libWebserver_MSS_CM3_0_hw_platform.a(mss_uart.o)
                0x0000b8e0                UART1_IRQHandler
 .text.NVIC_ClearPendingIRQ
                0x0000b90c       0x3c C:\Users\kylebs\Desktop\FreeRTOS-lwIP-takeDeux\FreeRTOS-lwIP\Webserver_uIPRTOS_SC_DF\EVAL_KIT\SF_Webserver_Demo\SoftConsole\Webserver_MSS_CM3_0\Webserver_MSS_CM3_0_hw_platform\Debug\libWebserver_MSS_CM3_0_hw_platform.a(mss_spi.o)
 .text.fill_slave_tx_fifo
                0x0000b948       0x9c C:\Users\kylebs\Desktop\FreeRTOS-lwIP-takeDeux\FreeRTOS-lwIP\Webserver_uIPRTOS_SC_DF\EVAL_KIT\SF_Webserver_Demo\SoftConsole\Webserver_MSS_CM3_0\Webserver_MSS_CM3_0_hw_platform\Debug\libWebserver_MSS_CM3_0_hw_platform.a(mss_spi.o)
 .text.read_slave_rx_fifo
                0x0000b9e4       0x9c C:\Users\kylebs\Desktop\FreeRTOS-lwIP-takeDeux\FreeRTOS-lwIP\Webserver_uIPRTOS_SC_DF\EVAL_KIT\SF_Webserver_Demo\SoftConsole\Webserver_MSS_CM3_0\Webserver_MSS_CM3_0_hw_platform\Debug\libWebserver_MSS_CM3_0_hw_platform.a(mss_spi.o)
 .text.mss_spi_isr
                0x0000ba80      0x114 C:\Users\kylebs\Desktop\FreeRTOS-lwIP-takeDeux\FreeRTOS-lwIP\Webserver_uIPRTOS_SC_DF\EVAL_KIT\SF_Webserver_Demo\SoftConsole\Webserver_MSS_CM3_0\Webserver_MSS_CM3_0_hw_platform\Debug\libWebserver_MSS_CM3_0_hw_platform.a(mss_spi.o)
 .text.SPI0_IRQHandler
                0x0000bb94       0x2c C:\Users\kylebs\Desktop\FreeRTOS-lwIP-takeDeux\FreeRTOS-lwIP\Webserver_uIPRTOS_SC_DF\EVAL_KIT\SF_Webserver_Demo\SoftConsole\Webserver_MSS_CM3_0\Webserver_MSS_CM3_0_hw_platform\Debug\libWebserver_MSS_CM3_0_hw_platform.a(mss_spi.o)
                0x0000bb94                SPI0_IRQHandler
 .text.SPI1_IRQHandler
                0x0000bbc0       0x2c C:\Users\kylebs\Desktop\FreeRTOS-lwIP-takeDeux\FreeRTOS-lwIP\Webserver_uIPRTOS_SC_DF\EVAL_KIT\SF_Webserver_Demo\SoftConsole\Webserver_MSS_CM3_0\Webserver_MSS_CM3_0_hw_platform\Debug\libWebserver_MSS_CM3_0_hw_platform.a(mss_spi.o)
                0x0000bbc0                SPI1_IRQHandler
 .text.NVIC_ClearPendingIRQ
                0x0000bbec       0x3c C:\Users\kylebs\Desktop\FreeRTOS-lwIP-takeDeux\FreeRTOS-lwIP\Webserver_uIPRTOS_SC_DF\EVAL_KIT\SF_Webserver_Demo\SoftConsole\Webserver_MSS_CM3_0\Webserver_MSS_CM3_0_hw_platform\Debug\libWebserver_MSS_CM3_0_hw_platform.a(mss_pdma.o)
 .text.get_channel_id_from_status
                0x0000bc28       0xb0 C:\Users\kylebs\Desktop\FreeRTOS-lwIP-takeDeux\FreeRTOS-lwIP\Webserver_uIPRTOS_SC_DF\EVAL_KIT\SF_Webserver_Demo\SoftConsole\Webserver_MSS_CM3_0\Webserver_MSS_CM3_0_hw_platform\Debug\libWebserver_MSS_CM3_0_hw_platform.a(mss_pdma.o)
 .text.DMA_IRQHandler
                0x0000bcd8       0x80 C:\Users\kylebs\Desktop\FreeRTOS-lwIP-takeDeux\FreeRTOS-lwIP\Webserver_uIPRTOS_SC_DF\EVAL_KIT\SF_Webserver_Demo\SoftConsole\Webserver_MSS_CM3_0\Webserver_MSS_CM3_0_hw_platform\Debug\libWebserver_MSS_CM3_0_hw_platform.a(mss_pdma.o)
                0x0000bcd8                DMA_IRQHandler
 .text.NVIC_EnableIRQ
                0x0000bd58       0x38 C:\Users\kylebs\Desktop\FreeRTOS-lwIP-takeDeux\FreeRTOS-lwIP\Webserver_uIPRTOS_SC_DF\EVAL_KIT\SF_Webserver_Demo\SoftConsole\Webserver_MSS_CM3_0\Webserver_MSS_CM3_0_hw_platform\Debug\libWebserver_MSS_CM3_0_hw_platform.a(mss_gpio.o)
 .text.NVIC_ClearPendingIRQ
                0x0000bd90       0x3c C:\Users\kylebs\Desktop\FreeRTOS-lwIP-takeDeux\FreeRTOS-lwIP\Webserver_uIPRTOS_SC_DF\EVAL_KIT\SF_Webserver_Demo\SoftConsole\Webserver_MSS_CM3_0\Webserver_MSS_CM3_0_hw_platform\Debug\libWebserver_MSS_CM3_0_hw_platform.a(mss_gpio.o)
 .text.MSS_GPIO_init
                0x0000bdcc       0x6c C:\Users\kylebs\Desktop\FreeRTOS-lwIP-takeDeux\FreeRTOS-lwIP\Webserver_uIPRTOS_SC_DF\EVAL_KIT\SF_Webserver_Demo\SoftConsole\Webserver_MSS_CM3_0\Webserver_MSS_CM3_0_hw_platform\Debug\libWebserver_MSS_CM3_0_hw_platform.a(mss_gpio.o)
                0x0000bdcc                MSS_GPIO_init
 .text.MSS_GPIO_config
                0x0000be38       0x3c C:\Users\kylebs\Desktop\FreeRTOS-lwIP-takeDeux\FreeRTOS-lwIP\Webserver_uIPRTOS_SC_DF\EVAL_KIT\SF_Webserver_Demo\SoftConsole\Webserver_MSS_CM3_0\Webserver_MSS_CM3_0_hw_platform\Debug\libWebserver_MSS_CM3_0_hw_platform.a(mss_gpio.o)
                0x0000be38                MSS_GPIO_config
 .text.MSS_GPIO_enable_irq
                0x0000be74       0x64 C:\Users\kylebs\Desktop\FreeRTOS-lwIP-takeDeux\FreeRTOS-lwIP\Webserver_uIPRTOS_SC_DF\EVAL_KIT\SF_Webserver_Demo\SoftConsole\Webserver_MSS_CM3_0\Webserver_MSS_CM3_0_hw_platform\Debug\libWebserver_MSS_CM3_0_hw_platform.a(mss_gpio.o)
                0x0000be74                MSS_GPIO_enable_irq
 .text.MSS_GPIO_disable_irq
                0x0000bed8       0x50 C:\Users\kylebs\Desktop\FreeRTOS-lwIP-takeDeux\FreeRTOS-lwIP\Webserver_uIPRTOS_SC_DF\EVAL_KIT\SF_Webserver_Demo\SoftConsole\Webserver_MSS_CM3_0\Webserver_MSS_CM3_0_hw_platform\Debug\libWebserver_MSS_CM3_0_hw_platform.a(mss_gpio.o)
                0x0000bed8                MSS_GPIO_disable_irq
 .text.MSS_GPIO_clear_irq
                0x0000bf28       0x50 C:\Users\kylebs\Desktop\FreeRTOS-lwIP-takeDeux\FreeRTOS-lwIP\Webserver_uIPRTOS_SC_DF\EVAL_KIT\SF_Webserver_Demo\SoftConsole\Webserver_MSS_CM3_0\Webserver_MSS_CM3_0_hw_platform\Debug\libWebserver_MSS_CM3_0_hw_platform.a(mss_gpio.o)
                0x0000bf28                MSS_GPIO_clear_irq
 .text.MSS_MAC_init
                0x0000bf78      0x318 C:\Users\kylebs\Desktop\FreeRTOS-lwIP-takeDeux\FreeRTOS-lwIP\Webserver_uIPRTOS_SC_DF\EVAL_KIT\SF_Webserver_Demo\SoftConsole\Webserver_MSS_CM3_0\Webserver_MSS_CM3_0_hw_platform\Debug\libWebserver_MSS_CM3_0_hw_platform.a(mss_ethernet_mac.o)
                0x0000bf78                MSS_MAC_init
 .text.MSS_MAC_configure
                0x0000c290      0x238 C:\Users\kylebs\Desktop\FreeRTOS-lwIP-takeDeux\FreeRTOS-lwIP\Webserver_uIPRTOS_SC_DF\EVAL_KIT\SF_Webserver_Demo\SoftConsole\Webserver_MSS_CM3_0\Webserver_MSS_CM3_0_hw_platform\Debug\libWebserver_MSS_CM3_0_hw_platform.a(mss_ethernet_mac.o)
                0x0000c290                MSS_MAC_configure
 .text.MSS_MAC_get_configuration
                0x0000c4c8      0x150 C:\Users\kylebs\Desktop\FreeRTOS-lwIP-takeDeux\FreeRTOS-lwIP\Webserver_uIPRTOS_SC_DF\EVAL_KIT\SF_Webserver_Demo\SoftConsole\Webserver_MSS_CM3_0\Webserver_MSS_CM3_0_hw_platform\Debug\libWebserver_MSS_CM3_0_hw_platform.a(mss_ethernet_mac.o)
                0x0000c4c8                MSS_MAC_get_configuration
 .text.MSS_MAC_tx_packet
                0x0000c618      0x428 C:\Users\kylebs\Desktop\FreeRTOS-lwIP-takeDeux\FreeRTOS-lwIP\Webserver_uIPRTOS_SC_DF\EVAL_KIT\SF_Webserver_Demo\SoftConsole\Webserver_MSS_CM3_0\Webserver_MSS_CM3_0_hw_platform\Debug\libWebserver_MSS_CM3_0_hw_platform.a(mss_ethernet_mac.o)
                0x0000c618                MSS_MAC_tx_packet
 .text.MSS_MAC_rx_pckt_size
                0x0000ca40       0x80 C:\Users\kylebs\Desktop\FreeRTOS-lwIP-takeDeux\FreeRTOS-lwIP\Webserver_uIPRTOS_SC_DF\EVAL_KIT\SF_Webserver_Demo\SoftConsole\Webserver_MSS_CM3_0\Webserver_MSS_CM3_0_hw_platform\Debug\libWebserver_MSS_CM3_0_hw_platform.a(mss_ethernet_mac.o)
                0x0000ca40                MSS_MAC_rx_pckt_size
 .text.MSS_MAC_rx_packet
                0x0000cac0      0x154 C:\Users\kylebs\Desktop\FreeRTOS-lwIP-takeDeux\FreeRTOS-lwIP\Webserver_uIPRTOS_SC_DF\EVAL_KIT\SF_Webserver_Demo\SoftConsole\Webserver_MSS_CM3_0\Webserver_MSS_CM3_0_hw_platform\Debug\libWebserver_MSS_CM3_0_hw_platform.a(mss_ethernet_mac.o)
                0x0000cac0                MSS_MAC_rx_packet
 .text.MSS_MAC_link_status
                0x0000cc14       0x3c C:\Users\kylebs\Desktop\FreeRTOS-lwIP-takeDeux\FreeRTOS-lwIP\Webserver_uIPRTOS_SC_DF\EVAL_KIT\SF_Webserver_Demo\SoftConsole\Webserver_MSS_CM3_0\Webserver_MSS_CM3_0_hw_platform\Debug\libWebserver_MSS_CM3_0_hw_platform.a(mss_ethernet_mac.o)
                0x0000cc14                MSS_MAC_link_status
 .text.MSS_MAC_auto_setup_link
                0x0000cc50       0xb8 C:\Users\kylebs\Desktop\FreeRTOS-lwIP-takeDeux\FreeRTOS-lwIP\Webserver_uIPRTOS_SC_DF\EVAL_KIT\SF_Webserver_Demo\SoftConsole\Webserver_MSS_CM3_0\Webserver_MSS_CM3_0_hw_platform\Debug\libWebserver_MSS_CM3_0_hw_platform.a(mss_ethernet_mac.o)
                0x0000cc50                MSS_MAC_auto_setup_link
 .text.MSS_MAC_set_mac_address
                0x0000cd08       0x9c C:\Users\kylebs\Desktop\FreeRTOS-lwIP-takeDeux\FreeRTOS-lwIP\Webserver_uIPRTOS_SC_DF\EVAL_KIT\SF_Webserver_Demo\SoftConsole\Webserver_MSS_CM3_0\Webserver_MSS_CM3_0_hw_platform\Debug\libWebserver_MSS_CM3_0_hw_platform.a(mss_ethernet_mac.o)
                0x0000cd08                MSS_MAC_set_mac_address
 .text.MSS_MAC_set_mac_filters
                0x0000cda4      0x190 C:\Users\kylebs\Desktop\FreeRTOS-lwIP-takeDeux\FreeRTOS-lwIP\Webserver_uIPRTOS_SC_DF\EVAL_KIT\SF_Webserver_Demo\SoftConsole\Webserver_MSS_CM3_0\Webserver_MSS_CM3_0_hw_platform\Debug\libWebserver_MSS_CM3_0_hw_platform.a(mss_ethernet_mac.o)
                0x0000cda4                MSS_MAC_set_mac_filters
 .text.EthernetMAC_IRQHandler
                0x0000cf34       0xf8 C:\Users\kylebs\Desktop\FreeRTOS-lwIP-takeDeux\FreeRTOS-lwIP\Webserver_uIPRTOS_SC_DF\EVAL_KIT\SF_Webserver_Demo\SoftConsole\Webserver_MSS_CM3_0\Webserver_MSS_CM3_0_hw_platform\Debug\libWebserver_MSS_CM3_0_hw_platform.a(mss_ethernet_mac.o)
                0x0000cf34                EthernetMAC_IRQHandler
 .text.MAC_test_instance
                0x0000d02c       0x7c C:\Users\kylebs\Desktop\FreeRTOS-lwIP-takeDeux\FreeRTOS-lwIP\Webserver_uIPRTOS_SC_DF\EVAL_KIT\SF_Webserver_Demo\SoftConsole\Webserver_MSS_CM3_0\Webserver_MSS_CM3_0_hw_platform\Debug\libWebserver_MSS_CM3_0_hw_platform.a(mss_ethernet_mac.o)
 .text.MSS_MAC_prepare_rx_descriptor
                0x0000d0a8      0x27c C:\Users\kylebs\Desktop\FreeRTOS-lwIP-takeDeux\FreeRTOS-lwIP\Webserver_uIPRTOS_SC_DF\EVAL_KIT\SF_Webserver_Demo\SoftConsole\Webserver_MSS_CM3_0\Webserver_MSS_CM3_0_hw_platform\Debug\libWebserver_MSS_CM3_0_hw_platform.a(mss_ethernet_mac.o)
                0x0000d0a8                MSS_MAC_prepare_rx_descriptor
 .text.MAC_send_setup_frame
                0x0000d324      0x330 C:\Users\kylebs\Desktop\FreeRTOS-lwIP-takeDeux\FreeRTOS-lwIP\Webserver_uIPRTOS_SC_DF\EVAL_KIT\SF_Webserver_Demo\SoftConsole\Webserver_MSS_CM3_0\Webserver_MSS_CM3_0_hw_platform\Debug\libWebserver_MSS_CM3_0_hw_platform.a(mss_ethernet_mac.o)
 .text.MAC_stop_transmission
                0x0000d654       0x60 C:\Users\kylebs\Desktop\FreeRTOS-lwIP-takeDeux\FreeRTOS-lwIP\Webserver_uIPRTOS_SC_DF\EVAL_KIT\SF_Webserver_Demo\SoftConsole\Webserver_MSS_CM3_0\Webserver_MSS_CM3_0_hw_platform\Debug\libWebserver_MSS_CM3_0_hw_platform.a(mss_ethernet_mac.o)
 .text.MAC_start_transmission
                0x0000d6b4       0x1c C:\Users\kylebs\Desktop\FreeRTOS-lwIP-takeDeux\FreeRTOS-lwIP\Webserver_uIPRTOS_SC_DF\EVAL_KIT\SF_Webserver_Demo\SoftConsole\Webserver_MSS_CM3_0\Webserver_MSS_CM3_0_hw_platform\Debug\libWebserver_MSS_CM3_0_hw_platform.a(mss_ethernet_mac.o)
 .text.MAC_stop_receiving
                0x0000d6d0       0x60 C:\Users\kylebs\Desktop\FreeRTOS-lwIP-takeDeux\FreeRTOS-lwIP\Webserver_uIPRTOS_SC_DF\EVAL_KIT\SF_Webserver_Demo\SoftConsole\Webserver_MSS_CM3_0\Webserver_MSS_CM3_0_hw_platform\Debug\libWebserver_MSS_CM3_0_hw_platform.a(mss_ethernet_mac.o)
 .text.MAC_start_receiving
                0x0000d730       0x1c C:\Users\kylebs\Desktop\FreeRTOS-lwIP-takeDeux\FreeRTOS-lwIP\Webserver_uIPRTOS_SC_DF\EVAL_KIT\SF_Webserver_Demo\SoftConsole\Webserver_MSS_CM3_0\Webserver_MSS_CM3_0_hw_platform\Debug\libWebserver_MSS_CM3_0_hw_platform.a(mss_ethernet_mac.o)
 .text.MAC_dismiss_bad_frames
                0x0000d74c       0xa4 C:\Users\kylebs\Desktop\FreeRTOS-lwIP-takeDeux\FreeRTOS-lwIP\Webserver_uIPRTOS_SC_DF\EVAL_KIT\SF_Webserver_Demo\SoftConsole\Webserver_MSS_CM3_0\Webserver_MSS_CM3_0_hw_platform\Debug\libWebserver_MSS_CM3_0_hw_platform.a(mss_ethernet_mac.o)
 .text.MAC_set_time_out
                0x0000d7f0       0x50 C:\Users\kylebs\Desktop\FreeRTOS-lwIP-takeDeux\FreeRTOS-lwIP\Webserver_uIPRTOS_SC_DF\EVAL_KIT\SF_Webserver_Demo\SoftConsole\Webserver_MSS_CM3_0\Webserver_MSS_CM3_0_hw_platform\Debug\libWebserver_MSS_CM3_0_hw_platform.a(mss_ethernet_mac.o)
 .text.MAC_get_time_out
                0x0000d840       0xf4 C:\Users\kylebs\Desktop\FreeRTOS-lwIP-takeDeux\FreeRTOS-lwIP\Webserver_uIPRTOS_SC_DF\EVAL_KIT\SF_Webserver_Demo\SoftConsole\Webserver_MSS_CM3_0\Webserver_MSS_CM3_0_hw_platform\Debug\libWebserver_MSS_CM3_0_hw_platform.a(mss_ethernet_mac.o)
 .text.MAC_memset
                0x0000d934       0x38 C:\Users\kylebs\Desktop\FreeRTOS-lwIP-takeDeux\FreeRTOS-lwIP\Webserver_uIPRTOS_SC_DF\EVAL_KIT\SF_Webserver_Demo\SoftConsole\Webserver_MSS_CM3_0\Webserver_MSS_CM3_0_hw_platform\Debug\libWebserver_MSS_CM3_0_hw_platform.a(mss_ethernet_mac.o)
 .text.MAC_memset_All
                0x0000d96c      0x2cc C:\Users\kylebs\Desktop\FreeRTOS-lwIP-takeDeux\FreeRTOS-lwIP\Webserver_uIPRTOS_SC_DF\EVAL_KIT\SF_Webserver_Demo\SoftConsole\Webserver_MSS_CM3_0\Webserver_MSS_CM3_0_hw_platform\Debug\libWebserver_MSS_CM3_0_hw_platform.a(mss_ethernet_mac.o)
 .text.MAC_memcpy
                0x0000dc38       0x3c C:\Users\kylebs\Desktop\FreeRTOS-lwIP-takeDeux\FreeRTOS-lwIP\Webserver_uIPRTOS_SC_DF\EVAL_KIT\SF_Webserver_Demo\SoftConsole\Webserver_MSS_CM3_0\Webserver_MSS_CM3_0_hw_platform\Debug\libWebserver_MSS_CM3_0_hw_platform.a(mss_ethernet_mac.o)
 .text.MDIO_management_clock
                0x0000dc74       0x38 C:\Users\kylebs\Desktop\FreeRTOS-lwIP-takeDeux\FreeRTOS-lwIP\Webserver_uIPRTOS_SC_DF\EVAL_KIT\SF_Webserver_Demo\SoftConsole\Webserver_MSS_CM3_0\Webserver_MSS_CM3_0_hw_platform\Debug\libWebserver_MSS_CM3_0_hw_platform.a(phy.o)
 .text.MDIO_send_cmd
                0x0000dcac      0x104 C:\Users\kylebs\Desktop\FreeRTOS-lwIP-takeDeux\FreeRTOS-lwIP\Webserver_uIPRTOS_SC_DF\EVAL_KIT\SF_Webserver_Demo\SoftConsole\Webserver_MSS_CM3_0\Webserver_MSS_CM3_0_hw_platform\Debug\libWebserver_MSS_CM3_0_hw_platform.a(phy.o)
 .text.MDIO_read
                0x0000ddb0       0x70 C:\Users\kylebs\Desktop\FreeRTOS-lwIP-takeDeux\FreeRTOS-lwIP\Webserver_uIPRTOS_SC_DF\EVAL_KIT\SF_Webserver_Demo\SoftConsole\Webserver_MSS_CM3_0\Webserver_MSS_CM3_0_hw_platform\Debug\libWebserver_MSS_CM3_0_hw_platform.a(phy.o)
 .text.MDIO_write
                0x0000de20       0x74 C:\Users\kylebs\Desktop\FreeRTOS-lwIP-takeDeux\FreeRTOS-lwIP\Webserver_uIPRTOS_SC_DF\EVAL_KIT\SF_Webserver_Demo\SoftConsole\Webserver_MSS_CM3_0\Webserver_MSS_CM3_0_hw_platform\Debug\libWebserver_MSS_CM3_0_hw_platform.a(phy.o)
 .text.PHY_probe
                0x0000de94       0x8c C:\Users\kylebs\Desktop\FreeRTOS-lwIP-takeDeux\FreeRTOS-lwIP\Webserver_uIPRTOS_SC_DF\EVAL_KIT\SF_Webserver_Demo\SoftConsole\Webserver_MSS_CM3_0\Webserver_MSS_CM3_0_hw_platform\Debug\libWebserver_MSS_CM3_0_hw_platform.a(phy.o)
                0x0000de94                PHY_probe
 .text.PHY_reset
                0x0000df20       0x20 C:\Users\kylebs\Desktop\FreeRTOS-lwIP-takeDeux\FreeRTOS-lwIP\Webserver_uIPRTOS_SC_DF\EVAL_KIT\SF_Webserver_Demo\SoftConsole\Webserver_MSS_CM3_0\Webserver_MSS_CM3_0_hw_platform\Debug\libWebserver_MSS_CM3_0_hw_platform.a(phy.o)
                0x0000df20                PHY_reset
 .text.PHY_auto_negotiate
                0x0000df40       0x70 C:\Users\kylebs\Desktop\FreeRTOS-lwIP-takeDeux\FreeRTOS-lwIP\Webserver_uIPRTOS_SC_DF\EVAL_KIT\SF_Webserver_Demo\SoftConsole\Webserver_MSS_CM3_0\Webserver_MSS_CM3_0_hw_platform\Debug\libWebserver_MSS_CM3_0_hw_platform.a(phy.o)
                0x0000df40                PHY_auto_negotiate
 .text.PHY_link_status
                0x0000dfb0       0x30 C:\Users\kylebs\Desktop\FreeRTOS-lwIP-takeDeux\FreeRTOS-lwIP\Webserver_uIPRTOS_SC_DF\EVAL_KIT\SF_Webserver_Demo\SoftConsole\Webserver_MSS_CM3_0\Webserver_MSS_CM3_0_hw_platform\Debug\libWebserver_MSS_CM3_0_hw_platform.a(phy.o)
                0x0000dfb0                PHY_link_status
 .text.PHY_link_type
                0x0000dfe0       0x48 C:\Users\kylebs\Desktop\FreeRTOS-lwIP-takeDeux\FreeRTOS-lwIP\Webserver_uIPRTOS_SC_DF\EVAL_KIT\SF_Webserver_Demo\SoftConsole\Webserver_MSS_CM3_0\Webserver_MSS_CM3_0_hw_platform\Debug\libWebserver_MSS_CM3_0_hw_platform.a(phy.o)
                0x0000dfe0                PHY_link_type
 .text.PHY_set_link_type
                0x0000e028       0x58 C:\Users\kylebs\Desktop\FreeRTOS-lwIP-takeDeux\FreeRTOS-lwIP\Webserver_uIPRTOS_SC_DF\EVAL_KIT\SF_Webserver_Demo\SoftConsole\Webserver_MSS_CM3_0\Webserver_MSS_CM3_0_hw_platform\Debug\libWebserver_MSS_CM3_0_hw_platform.a(phy.o)
                0x0000e028                PHY_set_link_type
 .text.UART_init
                0x0000e080      0x2a0 C:\Users\kylebs\Desktop\FreeRTOS-lwIP-takeDeux\FreeRTOS-lwIP\Webserver_uIPRTOS_SC_DF\EVAL_KIT\SF_Webserver_Demo\SoftConsole\Webserver_MSS_CM3_0\Webserver_MSS_CM3_0_hw_platform\Debug\libWebserver_MSS_CM3_0_hw_platform.a(core_uart_apb.o)
                0x0000e080                UART_init
 .text.UART_send
                0x0000e320      0x15c C:\Users\kylebs\Desktop\FreeRTOS-lwIP-takeDeux\FreeRTOS-lwIP\Webserver_uIPRTOS_SC_DF\EVAL_KIT\SF_Webserver_Demo\SoftConsole\Webserver_MSS_CM3_0\Webserver_MSS_CM3_0_hw_platform\Debug\libWebserver_MSS_CM3_0_hw_platform.a(core_uart_apb.o)
                0x0000e320                UART_send
 .text.UART_get_rx
                0x0000e47c      0x1b8 C:\Users\kylebs\Desktop\FreeRTOS-lwIP-takeDeux\FreeRTOS-lwIP\Webserver_uIPRTOS_SC_DF\EVAL_KIT\SF_Webserver_Demo\SoftConsole\Webserver_MSS_CM3_0\Webserver_MSS_CM3_0_hw_platform\Debug\libWebserver_MSS_CM3_0_hw_platform.a(core_uart_apb.o)
                0x0000e47c                UART_get_rx
 .text.__get_PRIMASK
                0x0000e634       0x20 C:\Users\kylebs\Desktop\FreeRTOS-lwIP-takeDeux\FreeRTOS-lwIP\Webserver_uIPRTOS_SC_DF\EVAL_KIT\SF_Webserver_Demo\SoftConsole\Webserver_MSS_CM3_0\Webserver_MSS_CM3_0_hw_platform\Debug\libWebserver_MSS_CM3_0_hw_platform.a(core_cm3.o)
                0x0000e634                __get_PRIMASK
 .text.__set_PRIMASK
                0x0000e654       0x18 C:\Users\kylebs\Desktop\FreeRTOS-lwIP-takeDeux\FreeRTOS-lwIP\Webserver_uIPRTOS_SC_DF\EVAL_KIT\SF_Webserver_Demo\SoftConsole\Webserver_MSS_CM3_0\Webserver_MSS_CM3_0_hw_platform\Debug\libWebserver_MSS_CM3_0_hw_platform.a(core_cm3.o)
                0x0000e654                __set_PRIMASK
 .text.SystemInit
                0x0000e66c        0xc C:\Users\kylebs\Desktop\FreeRTOS-lwIP-takeDeux\FreeRTOS-lwIP\Webserver_uIPRTOS_SC_DF\EVAL_KIT\SF_Webserver_Demo\SoftConsole\Webserver_MSS_CM3_0\Webserver_MSS_CM3_0_hw_platform\Debug\libWebserver_MSS_CM3_0_hw_platform.a(system_a2fxxxm3.o)
                0x0000e66c                SystemInit
 .text.SystemCoreClockUpdate
                0x0000e678      0x150 C:\Users\kylebs\Desktop\FreeRTOS-lwIP-takeDeux\FreeRTOS-lwIP\Webserver_uIPRTOS_SC_DF\EVAL_KIT\SF_Webserver_Demo\SoftConsole\Webserver_MSS_CM3_0\Webserver_MSS_CM3_0_hw_platform\Debug\libWebserver_MSS_CM3_0_hw_platform.a(system_a2fxxxm3.o)
                0x0000e678                SystemCoreClockUpdate
 .text.GetSystemClock
                0x0000e7c8       0xe8 C:\Users\kylebs\Desktop\FreeRTOS-lwIP-takeDeux\FreeRTOS-lwIP\Webserver_uIPRTOS_SC_DF\EVAL_KIT\SF_Webserver_Demo\SoftConsole\Webserver_MSS_CM3_0\Webserver_MSS_CM3_0_hw_platform\Debug\libWebserver_MSS_CM3_0_hw_platform.a(system_a2fxxxm3.o)
 .text.HAL_assert_fail
                0x0000e8b0       0x28 C:\Users\kylebs\Desktop\FreeRTOS-lwIP-takeDeux\FreeRTOS-lwIP\Webserver_uIPRTOS_SC_DF\EVAL_KIT\SF_Webserver_Demo\SoftConsole\Webserver_MSS_CM3_0\Webserver_MSS_CM3_0_hw_platform\Debug\libWebserver_MSS_CM3_0_hw_platform.a(hal_assert.o)
                0x0000e8b0                HAL_assert_fail
 .text          0x0000e8d8       0x90 C:\Users\kylebs\Desktop\FreeRTOS-lwIP-takeDeux\FreeRTOS-lwIP\Webserver_uIPRTOS_SC_DF\EVAL_KIT\SF_Webserver_Demo\SoftConsole\Webserver_MSS_CM3_0\Webserver_MSS_CM3_0_hw_platform\Debug\libWebserver_MSS_CM3_0_hw_platform.a(hw_reg_access.o)
                0x0000e8d8                HW_set_32bit_reg
                0x0000e8dc                HW_get_32bit_reg
                0x0000e8e0                HW_set_32bit_reg_field
                0x0000e8fc                HW_get_32bit_reg_field
                0x0000e908                HW_set_16bit_reg
                0x0000e90c                HW_get_16bit_reg
                0x0000e910                HW_set_16bit_reg_field
                0x0000e92c                HW_get_16bit_reg_field
                0x0000e938                HW_set_8bit_reg
                0x0000e93c                HW_get_8bit_reg
                0x0000e940                HW_set_8bit_reg_field
                0x0000e95c                HW_get_8bit_reg_field
 .text.mss_mac_crc32
                0x0000e968       0x60 C:\Users\kylebs\Desktop\FreeRTOS-lwIP-takeDeux\FreeRTOS-lwIP\Webserver_uIPRTOS_SC_DF\EVAL_KIT\SF_Webserver_Demo\SoftConsole\Webserver_MSS_CM3_0\Webserver_MSS_CM3_0_hw_platform\Debug\libWebserver_MSS_CM3_0_hw_platform.a(crc32.o)
                0x0000e968                mss_mac_crc32
 .text.mss_ethernet_crc
                0x0000e9c8       0x24 C:\Users\kylebs\Desktop\FreeRTOS-lwIP-takeDeux\FreeRTOS-lwIP\Webserver_uIPRTOS_SC_DF\EVAL_KIT\SF_Webserver_Demo\SoftConsole\Webserver_MSS_CM3_0\Webserver_MSS_CM3_0_hw_platform\Debug\libWebserver_MSS_CM3_0_hw_platform.a(crc32.o)
                0x0000e9c8                mss_ethernet_crc
 .text          0x0000e9ec      0x21c c:/actel/libero_v9.1/softconsole/sourcery-g++/bin/../lib/gcc/arm-none-eabi/4.4.1/thumb2\libgcc.a(_arm_addsubsf3.o)
                0x0000e9ec                __aeabi_frsub
                0x0000e9f4                __subsf3
                0x0000e9f4                __aeabi_fsub
                0x0000e9f8                __aeabi_fadd
                0x0000e9f8                __addsf3
                0x0000eb58                __aeabi_ui2f
                0x0000eb58                __floatunsisf
                0x0000eb60                __aeabi_i2f
                0x0000eb60                __floatsisf
                0x0000eb7c                __aeabi_ul2f
                0x0000eb7c                __floatundisf
                0x0000eb8c                __aeabi_l2f
                0x0000eb8c                __floatdisf
 .text          0x0000ec08      0x2a0 c:/actel/libero_v9.1/softconsole/sourcery-g++/bin/../lib/gcc/arm-none-eabi/4.4.1/thumb2\libgcc.a(_arm_muldivsf3.o)
                0x0000ec08                __mulsf3
                0x0000ec08                __aeabi_fmul
                0x0000ed70                __aeabi_fdiv
                0x0000ed70                __divsf3
 .text          0x0000eea8       0x40 c:/actel/libero_v9.1/softconsole/sourcery-g++/bin/../lib/gcc/arm-none-eabi/4.4.1/thumb2\libgcc.a(_arm_fixunssfsi.o)
                0x0000eea8                __fixunssfsi
                0x0000eea8                __aeabi_f2uiz
 .text          0x0000eee8       0x50 c:/actel/libero_v9.1/softconsole/sourcery-g++/bin/../lib/gcc/arm-none-eabi/4.4.1/../../../../arm-none-eabi/lib/thumb2\libc.a(lib_a-init.o)
                0x0000eee8                __libc_init_array
 .text          0x0000ef38       0x20 c:/actel/libero_v9.1/softconsole/sourcery-g++/bin/../lib/gcc/arm-none-eabi/4.4.1/../../../../arm-none-eabi/lib/thumb2\libc.a(lib_a-malloc.o)
                0x0000ef38                free
                0x0000ef48                malloc
 .text          0x0000ef58      0x5a4 c:/actel/libero_v9.1/softconsole/sourcery-g++/bin/../lib/gcc/arm-none-eabi/4.4.1/../../../../arm-none-eabi/lib/thumb2\libc.a(lib_a-mallocr.o)
                0x0000ef58                _malloc_r
 .text          0x0000f4fc       0x64 c:/actel/libero_v9.1/softconsole/sourcery-g++/bin/../lib/gcc/arm-none-eabi/4.4.1/../../../../arm-none-eabi/lib/thumb2\libc.a(lib_a-memcmp.o)
                0x0000f4fc                memcmp
 .text          0x0000f560      0x190 c:/actel/libero_v9.1/softconsole/sourcery-g++/bin/../lib/gcc/arm-none-eabi/4.4.1/../../../../arm-none-eabi/lib/thumb2\libc.a(lib_a-memcpy.o)
                0x0000f560                memcpy
 .text          0x0000f6f0       0xd4 c:/actel/libero_v9.1/softconsole/sourcery-g++/bin/../lib/gcc/arm-none-eabi/4.4.1/../../../../arm-none-eabi/lib/thumb2\libc.a(lib_a-memset.o)
                0x0000f6f0                memset
 .text          0x0000f7c4        0x8 c:/actel/libero_v9.1/softconsole/sourcery-g++/bin/../lib/gcc/arm-none-eabi/4.4.1/../../../../arm-none-eabi/lib/thumb2\libc.a(lib_a-mlock.o)
                0x0000f7c4                __malloc_lock
                0x0000f7c8                __malloc_unlock
 .text          0x0000f7cc       0x64 c:/actel/libero_v9.1/softconsole/sourcery-g++/bin/../lib/gcc/arm-none-eabi/4.4.1/../../../../arm-none-eabi/lib/thumb2\libc.a(lib_a-printf.o)
                0x0000f7cc                printf
                0x0000f804                _printf_r
 .text          0x0000f830       0x4c c:/actel/libero_v9.1/softconsole/sourcery-g++/bin/../lib/gcc/arm-none-eabi/4.4.1/../../../../arm-none-eabi/lib/thumb2\libc.a(lib_a-putchar.o)
                0x0000f830                putchar
                0x0000f858                _putchar_r
 .text          0x0000f87c       0x88 c:/actel/libero_v9.1/softconsole/sourcery-g++/bin/../lib/gcc/arm-none-eabi/4.4.1/../../../../arm-none-eabi/lib/thumb2\libc.a(lib_a-puts.o)
                0x0000f87c                _puts_r
                0x0000f8f4                puts
 .text          0x0000f904       0x28 c:/actel/libero_v9.1/softconsole/sourcery-g++/bin/../lib/gcc/arm-none-eabi/4.4.1/../../../../arm-none-eabi/lib/thumb2\libc.a(lib_a-sbrkr.o)
                0x0000f904                _sbrk_r
 .text          0x0000f92c       0x94 c:/actel/libero_v9.1/softconsole/sourcery-g++/bin/../lib/gcc/arm-none-eabi/4.4.1/../../../../arm-none-eabi/lib/thumb2\libc.a(lib_a-sprintf.o)
                0x0000f92c                sprintf
                0x0000f97c                _sprintf_r
 .text          0x0000f9c0       0xb8 c:/actel/libero_v9.1/softconsole/sourcery-g++/bin/../lib/gcc/arm-none-eabi/4.4.1/../../../../arm-none-eabi/lib/thumb2\libc.a(lib_a-sscanf.o)
                0x0000f9c4                _sscanf_r
                0x0000fa1c                sscanf
 .text          0x0000fa78       0xc0 c:/actel/libero_v9.1/softconsole/sourcery-g++/bin/../lib/gcc/arm-none-eabi/4.4.1/../../../../arm-none-eabi/lib/thumb2\libc.a(lib_a-strchr.o)
                0x0000fa78                strchr
 .text          0x0000fb38      0x1dc c:/actel/libero_v9.1/softconsole/sourcery-g++/bin/../lib/gcc/arm-none-eabi/4.4.1/../../../../arm-none-eabi/lib/thumb2\libc.a(lib_a-strcmp.o)
                0x0000fb38                strcmp
 .text          0x0000fd14       0xbc c:/actel/libero_v9.1/softconsole/sourcery-g++/bin/../lib/gcc/arm-none-eabi/4.4.1/../../../../arm-none-eabi/lib/thumb2\libc.a(lib_a-strcpy.o)
                0x0000fd14                strcpy
 .text          0x0000fdd0       0x60 c:/actel/libero_v9.1/softconsole/sourcery-g++/bin/../lib/gcc/arm-none-eabi/4.4.1/../../../../arm-none-eabi/lib/thumb2\libc.a(lib_a-strlen.o)
                0x0000fdd0                strlen
 .text          0x0000fe30       0xa8 c:/actel/libero_v9.1/softconsole/sourcery-g++/bin/../lib/gcc/arm-none-eabi/4.4.1/../../../../arm-none-eabi/lib/thumb2\libc.a(lib_a-strncmp.o)
                0x0000fe30                strncmp
 .text          0x0000fed8       0x78 c:/actel/libero_v9.1/softconsole/sourcery-g++/bin/../lib/gcc/arm-none-eabi/4.4.1/../../../../arm-none-eabi/lib/thumb2\libc.a(lib_a-strncpy.o)
                0x0000fed8                strncpy
 .text          0x0000ff50     0x15a8 c:/actel/libero_v9.1/softconsole/sourcery-g++/bin/../lib/gcc/arm-none-eabi/4.4.1/../../../../arm-none-eabi/lib/thumb2\libc.a(lib_a-svfprintf.o)
                0x0001006c                _svfprintf_r
 .text          0x000114f8     0x10f8 c:/actel/libero_v9.1/softconsole/sourcery-g++/bin/../lib/gcc/arm-none-eabi/4.4.1/../../../../arm-none-eabi/lib/thumb2\libc.a(lib_a-svfscanf.o)
                0x000115c4                __ssvfscanf_r
 .text          0x000125f0      0x1bc c:/actel/libero_v9.1/softconsole/sourcery-g++/bin/../lib/gcc/arm-none-eabi/4.4.1/../../../../arm-none-eabi/lib/thumb2\libc.a(lib_a-ungetc.o)
                0x000125f0                __submore
                0x0001266c                _ungetc_r
                0x0001279c                ungetc
 .text          0x000127ac     0x1940 c:/actel/libero_v9.1/softconsole/sourcery-g++/bin/../lib/gcc/arm-none-eabi/4.4.1/../../../../arm-none-eabi/lib/thumb2\libc.a(lib_a-vfprintf.o)
                0x000127c8                _vfprintf_r
                0x000140d0                vfprintf
 .text          0x000140ec      0x104 c:/actel/libero_v9.1/softconsole/sourcery-g++/bin/../lib/gcc/arm-none-eabi/4.4.1/../../../../arm-none-eabi/lib/thumb2\libc.a(lib_a-wsetup.o)
                0x000140ec                __swsetup_r
 .text          0x000141f0      0xfb8 c:/actel/libero_v9.1/softconsole/sourcery-g++/bin/../lib/gcc/arm-none-eabi/4.4.1/../../../../arm-none-eabi/lib/thumb2\libc.a(lib_a-dtoa.o)
                0x00014310                _dtoa_r
 .text          0x000151a8      0x178 c:/actel/libero_v9.1/softconsole/sourcery-g++/bin/../lib/gcc/arm-none-eabi/4.4.1/../../../../arm-none-eabi/lib/thumb2\libc.a(lib_a-fflush.o)
                0x000151a8                _fflush_r
                0x000152f8                fflush
 .text          0x00015320      0x1c8 c:/actel/libero_v9.1/softconsole/sourcery-g++/bin/../lib/gcc/arm-none-eabi/4.4.1/../../../../arm-none-eabi/lib/thumb2\libc.a(lib_a-findfp.o)
                0x00015320                __sfp_lock_acquire
                0x00015324                __sfp_lock_release
                0x00015328                __sinit_lock_acquire
                0x0001532c                __sinit_lock_release
                0x00015338                __fp_unlock_all
                0x00015350                __fp_lock_all
                0x00015368                _cleanup_r
                0x00015374                _cleanup
                0x000153d0                __sfmoreglue
                0x00015400                __sfp
                0x00015488                __sinit
 .text          0x000154e8      0x268 c:/actel/libero_v9.1/softconsole/sourcery-g++/bin/../lib/gcc/arm-none-eabi/4.4.1/../../../../arm-none-eabi/lib/thumb2\libc.a(lib_a-freer.o)
                0x000154e8                _malloc_trim_r
                0x00015590                _free_r
 .text          0x00015750      0x334 c:/actel/libero_v9.1/softconsole/sourcery-g++/bin/../lib/gcc/arm-none-eabi/4.4.1/../../../../arm-none-eabi/lib/thumb2\libc.a(lib_a-fvwrite.o)
                0x00015750                __sfvwrite_r
 .text          0x00015a84       0xa0 c:/actel/libero_v9.1/softconsole/sourcery-g++/bin/../lib/gcc/arm-none-eabi/4.4.1/../../../../arm-none-eabi/lib/thumb2\libc.a(lib_a-fwalk.o)
                0x00015a84                _fwalk_reent
                0x00015ad8                _fwalk
 .text          0x00015b24       0x1c c:/actel/libero_v9.1/softconsole/sourcery-g++/bin/../lib/gcc/arm-none-eabi/4.4.1/../../../../arm-none-eabi/lib/thumb2\libc.a(lib_a-iswspace.o)
                0x00015b24                iswspace
 .text          0x00015b40       0x74 c:/actel/libero_v9.1/softconsole/sourcery-g++/bin/../lib/gcc/arm-none-eabi/4.4.1/../../../../arm-none-eabi/lib/thumb2\libc.a(lib_a-locale.o)
                0x00015b40                __locale_charset
                0x00015b4c                _localeconv_r
                0x00015b54                localeconv
                0x00015b5c                _setlocale_r
                0x00015ba4                setlocale
 .text          0x00015bb4       0xdc c:/actel/libero_v9.1/softconsole/sourcery-g++/bin/../lib/gcc/arm-none-eabi/4.4.1/../../../../arm-none-eabi/lib/thumb2\libc.a(lib_a-makebuf.o)
                0x00015bb4                __smakebuf_r
 .text          0x00015c90       0x5c c:/actel/libero_v9.1/softconsole/sourcery-g++/bin/../lib/gcc/arm-none-eabi/4.4.1/../../../../arm-none-eabi/lib/thumb2\libc.a(lib_a-mbrtowc.o)
                0x00015c90                _mbrtowc_r
                0x00015cc8                mbrtowc
 .text          0x00015cec       0x38 c:/actel/libero_v9.1/softconsole/sourcery-g++/bin/../lib/gcc/arm-none-eabi/4.4.1/../../../../arm-none-eabi/lib/thumb2\libc.a(lib_a-mbtowc_r.o)
                0x00015cec                _mbtowc_r
 .text          0x00015d24       0x74 c:/actel/libero_v9.1/softconsole/sourcery-g++/bin/../lib/gcc/arm-none-eabi/4.4.1/../../../../arm-none-eabi/lib/thumb2\libc.a(lib_a-memchr.o)
                0x00015d24                memchr
 .text          0x00015d98       0xb8 c:/actel/libero_v9.1/softconsole/sourcery-g++/bin/../lib/gcc/arm-none-eabi/4.4.1/../../../../arm-none-eabi/lib/thumb2\libc.a(lib_a-memmove.o)
                0x00015d98                memmove
 .text          0x00015e50      0x958 c:/actel/libero_v9.1/softconsole/sourcery-g++/bin/../lib/gcc/arm-none-eabi/4.4.1/../../../../arm-none-eabi/lib/thumb2\libc.a(lib_a-mprec.o)
                0x00015e50                __hi0bits
                0x00015e90                __lo0bits
                0x00015ef4                __mcmp
                0x00015f34                __ulp
                0x00015f80                __b2d
                0x00016028                __ratio
                0x00016088                _mprec_log10
                0x000160c0                __copybits
                0x00016110                __any_on
                0x00016168                _Bfree
                0x000161a0                _Balloc
                0x0001620c                __d2b
                0x000162dc                __mdiff
                0x000163d4                __lshift
                0x00016490                __multiply
                0x000165c4                __i2b
                0x000165d8                __multadd
                0x00016660                __pow5mult
                0x0001670c                __s2b
 .text          0x000167a8      0x138 c:/actel/libero_v9.1/softconsole/sourcery-g++/bin/../lib/gcc/arm-none-eabi/4.4.1/../../../../arm-none-eabi/lib/thumb2\libc.a(lib_a-putc.o)
                0x000167a8                putc
                0x00016850                _putc_r
 .text          0x000168e0      0x3b4 c:/actel/libero_v9.1/softconsole/sourcery-g++/bin/../lib/gcc/arm-none-eabi/4.4.1/../../../../arm-none-eabi/lib/thumb2\libc.a(lib_a-reallocr.o)
                0x000168e0                _realloc_r
 .text          0x00016c94       0x24 c:/actel/libero_v9.1/softconsole/sourcery-g++/bin/../lib/gcc/arm-none-eabi/4.4.1/../../../../arm-none-eabi/lib/thumb2\libc.a(lib_a-s_isinfd.o)
                0x00016c94                __isinfd
 .text          0x00016cb8       0x1c c:/actel/libero_v9.1/softconsole/sourcery-g++/bin/../lib/gcc/arm-none-eabi/4.4.1/../../../../arm-none-eabi/lib/thumb2\libc.a(lib_a-s_isnand.o)
                0x00016cb8                __isnand
 .text          0x00016cd4       0x74 c:/actel/libero_v9.1/softconsole/sourcery-g++/bin/../lib/gcc/arm-none-eabi/4.4.1/../../../../arm-none-eabi/lib/thumb2\libc.a(lib_a-sccl.o)
                0x00016cd4                __sccl
 .text          0x00016d48        0xc c:/actel/libero_v9.1/softconsole/sourcery-g++/bin/../lib/gcc/arm-none-eabi/4.4.1/../../../../arm-none-eabi/lib/thumb2\libc.a(lib_a-sf_nan.o)
                0x00016d48                nanf
 .text          0x00016d54       0x90 c:/actel/libero_v9.1/softconsole/sourcery-g++/bin/../lib/gcc/arm-none-eabi/4.4.1/../../../../arm-none-eabi/lib/thumb2\libc.a(lib_a-stdio.o)
                0x00016d54                __sclose
                0x00016d5c                __sseek
                0x00016d84                __swrite
                0x00016dc0                __sread
 *fill*         0x00016de4        0x4 00
 .text          0x00016de8     0x1010 c:/actel/libero_v9.1/softconsole/sourcery-g++/bin/../lib/gcc/arm-none-eabi/4.4.1/../../../../arm-none-eabi/lib/thumb2\libc.a(lib_a-strtod.o)
                0x00016de8                _strtod_r
                0x00017d58                strtof
                0x00017de4                strtod
 .text          0x00017df8      0x158 c:/actel/libero_v9.1/softconsole/sourcery-g++/bin/../lib/gcc/arm-none-eabi/4.4.1/../../../../arm-none-eabi/lib/thumb2\libc.a(lib_a-strtol.o)
                0x00017df8                _strtol_r
                0x00017f38                strtol
 .text          0x00017f50      0x1f0 c:/actel/libero_v9.1/softconsole/sourcery-g++/bin/../lib/gcc/arm-none-eabi/4.4.1/../../../../arm-none-eabi/lib/thumb2\libc.a(lib_a-strtoll_r.o)
                0x00017f50                _strtoll_r
 .text          0x00018140      0x154 c:/actel/libero_v9.1/softconsole/sourcery-g++/bin/../lib/gcc/arm-none-eabi/4.4.1/../../../../arm-none-eabi/lib/thumb2\libc.a(lib_a-strtoul.o)
                0x00018140                _strtoul_r
                0x0001827c                strtoul
 .text          0x00018294      0x1ec c:/actel/libero_v9.1/softconsole/sourcery-g++/bin/../lib/gcc/arm-none-eabi/4.4.1/../../../../arm-none-eabi/lib/thumb2\libc.a(lib_a-strtoull_r.o)
                0x00018294                _strtoull_r
 .text          0x00018480       0xf8 c:/actel/libero_v9.1/softconsole/sourcery-g++/bin/../lib/gcc/arm-none-eabi/4.4.1/../../../../arm-none-eabi/lib/thumb2\libc.a(lib_a-wbuf.o)
                0x00018480                __swbuf_r
                0x00018568                __swbuf
 .text          0x00018578       0x5c c:/actel/libero_v9.1/softconsole/sourcery-g++/bin/../lib/gcc/arm-none-eabi/4.4.1/../../../../arm-none-eabi/lib/thumb2\libc.a(lib_a-callocr.o)
                0x00018578                _calloc_r
 .text          0x000185d4       0x28 c:/actel/libero_v9.1/softconsole/sourcery-g++/bin/../lib/gcc/arm-none-eabi/4.4.1/../../../../arm-none-eabi/lib/thumb2\libc.a(lib_a-closer.o)
                0x000185d4                _close_r
 .text          0x000185fc       0xcc c:/actel/libero_v9.1/softconsole/sourcery-g++/bin/../lib/gcc/arm-none-eabi/4.4.1/../../../../arm-none-eabi/lib/thumb2\libc.a(lib_a-fclose.o)
                0x000185fc                _fclose_r
                0x000186b8                fclose
 .text          0x000186c8       0x2c c:/actel/libero_v9.1/softconsole/sourcery-g++/bin/../lib/gcc/arm-none-eabi/4.4.1/../../../../arm-none-eabi/lib/thumb2\libc.a(lib_a-fstatr.o)
                0x000186c8                _fstat_r
 .text          0x000186f4      0x5a8 c:/actel/libero_v9.1/softconsole/sourcery-g++/bin/../lib/gcc/arm-none-eabi/4.4.1/../../../../arm-none-eabi/lib/thumb2\libc.a(lib_a-gdtoa-gethex.o)
                0x000186f4                __hexdig_init
                0x000187e0                __gethex
 .text          0x00018c9c      0x1bc c:/actel/libero_v9.1/softconsole/sourcery-g++/bin/../lib/gcc/arm-none-eabi/4.4.1/../../../../arm-none-eabi/lib/thumb2\libc.a(lib_a-gdtoa-hexnan.o)
                0x00018c9c                __hexnan
 .text          0x00018e58       0x28 c:/actel/libero_v9.1/softconsole/sourcery-g++/bin/../lib/gcc/arm-none-eabi/4.4.1/../../../../arm-none-eabi/lib/thumb2\libc.a(lib_a-isattyr.o)
                0x00018e58                _isatty_r
 .text          0x00018e80       0x2c c:/actel/libero_v9.1/softconsole/sourcery-g++/bin/../lib/gcc/arm-none-eabi/4.4.1/../../../../arm-none-eabi/lib/thumb2\libc.a(lib_a-lseekr.o)
                0x00018e80                _lseek_r
 .text          0x00018eac       0x2c c:/actel/libero_v9.1/softconsole/sourcery-g++/bin/../lib/gcc/arm-none-eabi/4.4.1/../../../../arm-none-eabi/lib/thumb2\libc.a(lib_a-readr.o)
                0x00018eac                _read_r
 .text          0x00018ed8      0x278 c:/actel/libero_v9.1/softconsole/sourcery-g++/bin/../lib/gcc/arm-none-eabi/4.4.1/thumb2\libgcc.a(_udivsi3.o)
                0x00018ed8                __aeabi_uidiv
                0x00018ed8                __udivsi3
                0x00019134                __aeabi_uidivmod
 .text          0x00019150        0x4 c:/actel/libero_v9.1/softconsole/sourcery-g++/bin/../lib/gcc/arm-none-eabi/4.4.1/thumb2\libgcc.a(_dvmd_tls.o)
                0x00019150                __aeabi_idiv0
                0x00019150                __aeabi_ldiv0
 .text          0x00019154      0x370 c:/actel/libero_v9.1/softconsole/sourcery-g++/bin/../lib/gcc/arm-none-eabi/4.4.1/thumb2\libgcc.a(_arm_addsubdf3.o)
                0x00019154                __aeabi_drsub
                0x0001915c                __aeabi_dsub
                0x0001915c                __subdf3
                0x00019160                __aeabi_dadd
                0x00019160                __adddf3
                0x000193d8                __floatunsidf
                0x000193d8                __aeabi_ui2d
                0x000193f8                __floatsidf
                0x000193f8                __aeabi_i2d
                0x0001941c                __aeabi_f2d
                0x0001941c                __extendsfdf2
                0x00019458                __floatundidf
                0x00019458                __aeabi_ul2d
                0x00019468                __floatdidf
                0x00019468                __aeabi_l2d
 .text          0x000194c4      0x424 c:/actel/libero_v9.1/softconsole/sourcery-g++/bin/../lib/gcc/arm-none-eabi/4.4.1/thumb2\libgcc.a(_arm_muldivdf3.o)
                0x000194c4                __aeabi_dmul
                0x000194c4                __muldf3
                0x00019718                __divdf3
                0x00019718                __aeabi_ddiv
 .text          0x000198e8      0x110 c:/actel/libero_v9.1/softconsole/sourcery-g++/bin/../lib/gcc/arm-none-eabi/4.4.1/thumb2\libgcc.a(_arm_cmpdf2.o)
                0x000198e8                __gtdf2
                0x000198e8                __gedf2
                0x000198f0                __ltdf2
                0x000198f0                __ledf2
                0x000198f8                __nedf2
                0x000198f8                __eqdf2
                0x000198f8                __cmpdf2
                0x00019974                __aeabi_cdrcmple
                0x00019984                __aeabi_cdcmpeq
                0x00019984                __aeabi_cdcmple
                0x00019994                __aeabi_dcmpeq
                0x000199a8                __aeabi_dcmplt
                0x000199bc                __aeabi_dcmple
                0x000199d0                __aeabi_dcmpge
                0x000199e4                __aeabi_dcmpgt
 .text          0x000199f8       0x50 c:/actel/libero_v9.1/softconsole/sourcery-g++/bin/../lib/gcc/arm-none-eabi/4.4.1/thumb2\libgcc.a(_arm_fixdfsi.o)
                0x000199f8                __aeabi_d2iz
                0x000199f8                __fixdfsi
 .text          0x00019a48       0x40 c:/actel/libero_v9.1/softconsole/sourcery-g++/bin/../lib/gcc/arm-none-eabi/4.4.1/thumb2\libgcc.a(_arm_fixunsdfsi.o)
                0x00019a48                __aeabi_d2uiz
                0x00019a48                __fixunsdfsi
 .text          0x00019a88       0xa0 c:/actel/libero_v9.1/softconsole/sourcery-g++/bin/../lib/gcc/arm-none-eabi/4.4.1/thumb2\libgcc.a(_arm_truncdfsf2.o)
                0x00019a88                __truncdfsf2
                0x00019a88                __aeabi_d2f
 .text          0x00019b28       0xec c:/actel/libero_v9.1/softconsole/sourcery-g++/bin/../lib/gcc/arm-none-eabi/4.4.1/thumb2\libgcc.a(_arm_cmpsf2.o)
                0x00019b28                __gesf2
                0x00019b28                __gtsf2
                0x00019b30                __lesf2
                0x00019b30                __ltsf2
                0x00019b38                __nesf2
                0x00019b38                __eqsf2
                0x00019b38                __cmpsf2
                0x00019b98                __aeabi_cfrcmple
                0x00019ba0                __aeabi_cfcmpeq
                0x00019ba0                __aeabi_cfcmple
                0x00019bb0                __aeabi_fcmpeq
                0x00019bc4                __aeabi_fcmplt
                0x00019bd8                __aeabi_fcmple
                0x00019bec                __aeabi_fcmpge
                0x00019c00                __aeabi_fcmpgt
 .text          0x00019c14       0x2c c:/actel/libero_v9.1/softconsole/sourcery-g++/bin/../lib/gcc/arm-none-eabi/4.4.1/thumb2\libgcc.a(_aeabi_uldivmod.o)
                0x00019c14                __aeabi_uldivmod
 .text          0x00019c40       0x58 c:/actel/libero_v9.1/softconsole/sourcery-g++/bin/../lib/gcc/arm-none-eabi/4.4.1/thumb2\libgcc.a(bpabi.o)
                0x00019c40                __gnu_uldivmod_helper
                0x00019c6c                __gnu_ldivmod_helper
 .text          0x00019c98      0x364 c:/actel/libero_v9.1/softconsole/sourcery-g++/bin/../lib/gcc/arm-none-eabi/4.4.1/thumb2\libgcc.a(_divdi3.o)
                0x00019c98                __divdi3
 .text          0x00019ffc      0x300 c:/actel/libero_v9.1/softconsole/sourcery-g++/bin/../lib/gcc/arm-none-eabi/4.4.1/thumb2\libgcc.a(_udivdi3.o)
                0x00019ffc                __udivdi3
 *(.plt)
 *(.gnu.warning)
 *(.glue_7t)
 .glue_7t       0x00000000        0x0 linker stubs
 *(.glue_7)
 .glue_7        0x00000000        0x0 linker stubs
 *(.vfp11_veneer)
 .vfp11_veneer  0x00000000        0x0 linker stubs
                0x0001a2fc                . = ALIGN (0x4)
 *crtbegin.o(.ctors)
 *(EXCLUDE_FILE(*crtend.o) .ctors)
 *(SORT(.ctors.*))
 *crtend.o(.ctors)
 *crtbegin.o(.dtors)
 *(EXCLUDE_FILE(*crtend.o) .dtors)
 *(SORT(.dtors.*))
 *crtend.o(.dtors)
 *(.rodata .rodata.* .gnu.linkonce.r.*)
 .rodata        0x0001a2fc      0x110 ./main.o
 .rodata.http_http
                0x0001a40c        0x8 ./webclient/webclient-strings.o
                0x0001a40c                http_http
 .rodata.http_200
                0x0001a414        0x8 ./webclient/webclient-strings.o
                0x0001a414                http_200
 .rodata.http_301
                0x0001a41c        0x8 ./webclient/webclient-strings.o
                0x0001a41c                http_301
 .rodata.http_302
                0x0001a424        0x8 ./webclient/webclient-strings.o
                0x0001a424                http_302
 .rodata.http_get
                0x0001a42c        0x8 ./webclient/webclient-strings.o
                0x0001a42c                http_get
 .rodata.http_10
                0x0001a434        0xc ./webclient/webclient-strings.o
                0x0001a434                http_10
 .rodata.http_11
                0x0001a440        0xc ./webclient/webclient-strings.o
                0x0001a440                http_11
 .rodata.http_content_type
                0x0001a44c       0x10 ./webclient/webclient-strings.o
                0x0001a44c                http_content_type
 .rodata.http_location
                0x0001a45c        0xc ./webclient/webclient-strings.o
                0x0001a45c                http_location
 .rodata.http_host
                0x0001a468        0x8 ./webclient/webclient-strings.o
                0x0001a468                http_host
 .rodata.http_crnl
                0x0001a470        0x4 ./webclient/webclient-strings.o
                0x0001a470                http_crnl
 .rodata.http_user_agent_fields
                0x0001a474       0x50 ./webclient/webclient-strings.o
                0x0001a474                http_user_agent_fields
 .rodata        0x0001a4c4       0xa8 ./webclient/webclient.o
 .rodata.all_ones_addr
                0x0001a56c        0x4 ./uip/uip.o
 .rodata.all_zeroes_addr
                0x0001a570        0x4 ./uip/uip.o
 .rodata        0x0001a574      0x150 ./uip/uip.o
 .rodata.broadcast_ethaddr
                0x0001a6c4        0x8 ./uip/uip_arp.o
 .rodata.broadcast_ipaddr
                0x0001a6cc        0x4 ./uip/uip_arp.o
 .rodata.g_client_ip
                0x0001a6d0        0x4 ./mac/tcpip.o
 .rodata        0x0001a6d4       0x38 ./mac/tcpip.o
 .rodata        0x0001a70c       0x70 ./application_tasks/controller_task.o
 .rodata        0x0001a77c      0x308 ./application_tasks/http_task.o
 .rodata.delay_200ms
                0x0001aa84        0x2 ./application_tasks/lcd_task.o
 .rodata.delay_6ms
                0x0001aa86        0x2 ./application_tasks/nunchuck_task.o
 .rodata.LEFT   0x0001aa88        0x1 ./application_tasks/nunchuck_task.o
 .rodata.RIGHT  0x0001aa89        0x1 ./application_tasks/nunchuck_task.o
 .rodata.UP     0x0001aa8a        0x1 ./application_tasks/nunchuck_task.o
 .rodata.DOWN   0x0001aa8b        0x1 ./application_tasks/nunchuck_task.o
 .rodata.C      0x0001aa8c        0x1 ./application_tasks/nunchuck_task.o
 .rodata.Z      0x0001aa8d        0x1 ./application_tasks/nunchuck_task.o
 *fill*         0x0001aa8e        0x2 00
 .rodata        0x0001aa90       0x5c ./application_tasks/nunchuck_task.o
 .rodata        0x0001aaec       0x3c ./FreeRTOS/tasks.o
 .rodata.ucExpectedStackBytes.3565
                0x0001ab28       0x14 ./FreeRTOS/tasks.o
 .rodata        0x0001ab3c        0x8 ./FreeRTOS/timers.o
 .rodata        0x0001ab44       0x1c C:/Users/kylebs/Desktop/FreeRTOS-lwIP-takeDeux/FreeRTOS-lwIP/Webserver_uIPRTOS_SC_DF/EVAL_KIT/SF_Webserver_Demo/SoftConsole/Webserver_MSS_CM3_0/Webserver_MSS_CM3_0_hw_platform/Debug/CMSIS/startup_gcc/newlib_stubs.o
 .rodata        0x0001ab60       0x14 C:\Users\kylebs\Desktop\FreeRTOS-lwIP-takeDeux\FreeRTOS-lwIP\Webserver_uIPRTOS_SC_DF\EVAL_KIT\SF_Webserver_Demo\SoftConsole\Webserver_MSS_CM3_0\Webserver_MSS_CM3_0_hw_platform\Debug\libWebserver_MSS_CM3_0_hw_platform.a(plotter_platform.o)
 .rodata.g_pdma_status_mask
                0x0001ab74       0x10 C:\Users\kylebs\Desktop\FreeRTOS-lwIP-takeDeux\FreeRTOS-lwIP\Webserver_uIPRTOS_SC_DF\EVAL_KIT\SF_Webserver_Demo\SoftConsole\Webserver_MSS_CM3_0\Webserver_MSS_CM3_0_hw_platform\Debug\libWebserver_MSS_CM3_0_hw_platform.a(mss_pdma.o)
 .rodata.g_config_reg_lut
                0x0001ab84       0x80 C:\Users\kylebs\Desktop\FreeRTOS-lwIP-takeDeux\FreeRTOS-lwIP\Webserver_uIPRTOS_SC_DF\EVAL_KIT\SF_Webserver_Demo\SoftConsole\Webserver_MSS_CM3_0\Webserver_MSS_CM3_0_hw_platform\Debug\libWebserver_MSS_CM3_0_hw_platform.a(mss_gpio.o)
 .rodata.g_gpio_irqn_lut
                0x0001ac04       0x40 C:\Users\kylebs\Desktop\FreeRTOS-lwIP-takeDeux\FreeRTOS-lwIP\Webserver_uIPRTOS_SC_DF\EVAL_KIT\SF_Webserver_Demo\SoftConsole\Webserver_MSS_CM3_0\Webserver_MSS_CM3_0_hw_platform\Debug\libWebserver_MSS_CM3_0_hw_platform.a(mss_gpio.o)
 .rodata.C.18.2827
                0x0001ac44        0x8 C:\Users\kylebs\Desktop\FreeRTOS-lwIP-takeDeux\FreeRTOS-lwIP\Webserver_uIPRTOS_SC_DF\EVAL_KIT\SF_Webserver_Demo\SoftConsole\Webserver_MSS_CM3_0\Webserver_MSS_CM3_0_hw_platform\Debug\libWebserver_MSS_CM3_0_hw_platform.a(mss_ethernet_mac.o)
 .rodata        0x0001ac4c       0x28 C:\Users\kylebs\Desktop\FreeRTOS-lwIP-takeDeux\FreeRTOS-lwIP\Webserver_uIPRTOS_SC_DF\EVAL_KIT\SF_Webserver_Demo\SoftConsole\Webserver_MSS_CM3_0\Webserver_MSS_CM3_0_hw_platform\Debug\libWebserver_MSS_CM3_0_hw_platform.a(core_uart_apb.o)
 .rodata.C.18.2576
                0x0001ac74       0x10 C:\Users\kylebs\Desktop\FreeRTOS-lwIP-takeDeux\FreeRTOS-lwIP\Webserver_uIPRTOS_SC_DF\EVAL_KIT\SF_Webserver_Demo\SoftConsole\Webserver_MSS_CM3_0\Webserver_MSS_CM3_0_hw_platform\Debug\libWebserver_MSS_CM3_0_hw_platform.a(system_a2fxxxm3.o)
 .rodata.crc32_table
                0x0001ac84      0x400 C:\Users\kylebs\Desktop\FreeRTOS-lwIP-takeDeux\FreeRTOS-lwIP\Webserver_uIPRTOS_SC_DF\EVAL_KIT\SF_Webserver_Demo\SoftConsole\Webserver_MSS_CM3_0\Webserver_MSS_CM3_0_hw_platform\Debug\libWebserver_MSS_CM3_0_hw_platform.a(crc32.o)
 .rodata        0x0001b084        0x4 c:/actel/libero_v9.1/softconsole/sourcery-g++/bin/../lib/gcc/arm-none-eabi/4.4.1/../../../../arm-none-eabi/lib/thumb2\libc.a(lib_a-impure.o)
                0x0001b084                _global_impure_ptr
 .rodata.str1.4
                0x0001b088        0x2 c:/actel/libero_v9.1/softconsole/sourcery-g++/bin/../lib/gcc/arm-none-eabi/4.4.1/../../../../arm-none-eabi/lib/thumb2\libc.a(lib_a-impure.o)
                                  0x4 (size before relaxing)
 *fill*         0x0001b08a        0x2 00
 .rodata.str1.4
                0x0001b08c        0x2 c:/actel/libero_v9.1/softconsole/sourcery-g++/bin/../lib/gcc/arm-none-eabi/4.4.1/../../../../arm-none-eabi/lib/thumb2\libc.a(lib_a-puts.o)
                                  0x4 (size before relaxing)
 *fill*         0x0001b08e        0x2 00
 .rodata        0x0001b090       0x20 c:/actel/libero_v9.1/softconsole/sourcery-g++/bin/../lib/gcc/arm-none-eabi/4.4.1/../../../../arm-none-eabi/lib/thumb2\libc.a(lib_a-svfprintf.o)
 .rodata.str1.4
                0x0001b0b0       0x42 c:/actel/libero_v9.1/softconsole/sourcery-g++/bin/../lib/gcc/arm-none-eabi/4.4.1/../../../../arm-none-eabi/lib/thumb2\libc.a(lib_a-svfprintf.o)
                                 0x44 (size before relaxing)
 *fill*         0x0001b0f2        0x2 00
 .rodata        0x0001b0f4       0x24 c:/actel/libero_v9.1/softconsole/sourcery-g++/bin/../lib/gcc/arm-none-eabi/4.4.1/../../../../arm-none-eabi/lib/thumb2\libc.a(lib_a-svfscanf.o)
 .rodata.str1.4
                0x0001b118        0x5 c:/actel/libero_v9.1/softconsole/sourcery-g++/bin/../lib/gcc/arm-none-eabi/4.4.1/../../../../arm-none-eabi/lib/thumb2\libc.a(lib_a-svfscanf.o)
                                  0x8 (size before relaxing)
 *fill*         0x0001b11d        0x3 00
 .rodata        0x0001b120       0x20 c:/actel/libero_v9.1/softconsole/sourcery-g++/bin/../lib/gcc/arm-none-eabi/4.4.1/../../../../arm-none-eabi/lib/thumb2\libc.a(lib_a-vfprintf.o)
 .rodata.str1.4
                0x00000000       0x44 c:/actel/libero_v9.1/softconsole/sourcery-g++/bin/../lib/gcc/arm-none-eabi/4.4.1/../../../../arm-none-eabi/lib/thumb2\libc.a(lib_a-vfprintf.o)
 .rodata        0x0001b140      0x104 c:/actel/libero_v9.1/softconsole/sourcery-g++/bin/../lib/gcc/arm-none-eabi/4.4.1/../../../../arm-none-eabi/lib/thumb2\libc.a(lib_a-ctype_.o)
                0x0001b140                _ctype_
 .rodata.str1.4
                0x0001b244       0x10 c:/actel/libero_v9.1/softconsole/sourcery-g++/bin/../lib/gcc/arm-none-eabi/4.4.1/../../../../arm-none-eabi/lib/thumb2\libc.a(lib_a-dtoa.o)
                                 0x14 (size before relaxing)
 .rodata        0x0001b254       0x60 c:/actel/libero_v9.1/softconsole/sourcery-g++/bin/../lib/gcc/arm-none-eabi/4.4.1/../../../../arm-none-eabi/lib/thumb2\libc.a(lib_a-findfp.o)
                0x0001b254                __sf_fake_stdin
                0x0001b274                __sf_fake_stdout
                0x0001b294                __sf_fake_stderr
 .rodata        0x0001b2b4       0x34 c:/actel/libero_v9.1/softconsole/sourcery-g++/bin/../lib/gcc/arm-none-eabi/4.4.1/../../../../arm-none-eabi/lib/thumb2\libc.a(lib_a-locale.o)
 .rodata.str1.4
                0x0001b2e8        0xf c:/actel/libero_v9.1/softconsole/sourcery-g++/bin/../lib/gcc/arm-none-eabi/4.4.1/../../../../arm-none-eabi/lib/thumb2\libc.a(lib_a-locale.o)
                                 0x18 (size before relaxing)
 .rodata.str1.4
                0x00000000        0x4 c:/actel/libero_v9.1/softconsole/sourcery-g++/bin/../lib/gcc/arm-none-eabi/4.4.1/../../../../arm-none-eabi/lib/thumb2\libc.a(lib_a-mbrtowc.o)
 *fill*         0x0001b2f7        0x1 00
 .rodata        0x0001b2f8      0x128 c:/actel/libero_v9.1/softconsole/sourcery-g++/bin/../lib/gcc/arm-none-eabi/4.4.1/../../../../arm-none-eabi/lib/thumb2\libc.a(lib_a-mprec.o)
                0x0001b2f8                __mprec_tens
                0x0001b3d0                __mprec_bigtens
                0x0001b3f8                __mprec_tinytens
 .rodata        0x0001b420       0x28 c:/actel/libero_v9.1/softconsole/sourcery-g++/bin/../lib/gcc/arm-none-eabi/4.4.1/../../../../arm-none-eabi/lib/thumb2\libc.a(lib_a-strtod.o)
 .rodata.str1.4
                0x0001b448        0xf c:/actel/libero_v9.1/softconsole/sourcery-g++/bin/../lib/gcc/arm-none-eabi/4.4.1/../../../../arm-none-eabi/lib/thumb2\libc.a(lib_a-strtod.o)
                                 0x10 (size before relaxing)
 *fill*         0x0001b457        0x1 00
 .rodata.str1.4
                0x0001b458       0x1c c:/actel/libero_v9.1/softconsole/sourcery-g++/bin/../lib/gcc/arm-none-eabi/4.4.1/../../../../arm-none-eabi/lib/thumb2\libc.a(lib_a-gdtoa-gethex.o)
 *(.ARM.extab* .gnu.linkonce.armextab.*)
 *(.gcc_except_table)
 *(.eh_frame_hdr)
 *(.eh_frame)
 *(.init)
 .init          0x0001b474        0x4 c:/actel/libero_v9.1/softconsole/sourcery-g++/bin/../lib/gcc/arm-none-eabi/4.4.1/thumb2/crti.o
                0x0001b474                _init
 .init          0x0001b478        0x8 c:/actel/libero_v9.1/softconsole/sourcery-g++/bin/../lib/gcc/arm-none-eabi/4.4.1/thumb2/crtn.o
 *(.fini)
 .fini          0x0001b480        0x4 c:/actel/libero_v9.1/softconsole/sourcery-g++/bin/../lib/gcc/arm-none-eabi/4.4.1/thumb2/crti.o
                0x0001b480                _fini
 .fini          0x0001b484        0x8 c:/actel/libero_v9.1/softconsole/sourcery-g++/bin/../lib/gcc/arm-none-eabi/4.4.1/thumb2/crtn.o
                0x0001b48c                PROVIDE (__preinit_array_start, .)
 *(.preinit_array)
                0x0001b48c                PROVIDE (__preinit_array_end, .)
                0x0001b48c                PROVIDE (__init_array_start, .)
 *(SORT(.init_array.*))
 *(.init_array)
 .init_array    0x0001b48c        0x4 c:/actel/libero_v9.1/softconsole/sourcery-g++/bin/../lib/gcc/arm-none-eabi/4.4.1/thumb2/crtbegin.o
                0x0001b490                PROVIDE (__init_array_end, .)
                0x0001b490                PROVIDE (__fini_array_start, .)
 *(.fini_array)
 .fini_array    0x0001b490        0x4 c:/actel/libero_v9.1/softconsole/sourcery-g++/bin/../lib/gcc/arm-none-eabi/4.4.1/thumb2/crtbegin.o
 *(SORT(.fini_array.*))
                0x0001b494                PROVIDE (__fini_array_end, .)
                0x0001b494                __exidx_start = .

.v4_bx          0x0001b494        0x0 load address 0x6001b494
 .v4_bx         0x00000000        0x0 linker stubs

.ARM.exidx      0x20000000        0x8 load address 0x6001b494
 *(.ARM.exidx* .gnu.linkonce.armexidx.*)
 .ARM.exidx     0x20000000        0x8 c:/actel/libero_v9.1/softconsole/sourcery-g++/bin/../lib/gcc/arm-none-eabi/4.4.1/thumb2\libgcc.a(_divdi3.o)
 .ARM.exidx     0x20000008        0x0 c:/actel/libero_v9.1/softconsole/sourcery-g++/bin/../lib/gcc/arm-none-eabi/4.4.1/thumb2\libgcc.a(_udivdi3.o)
                                  0x8 (size before relaxing)
                0x20000008                __exidx_end = .
                0x20000008                _etext = .

.data           0x20000008      0x6b8 load address 0x6001b49c
                0x6001b49c                __data_load = LOADADDR (.data)
                0x6001b49c                _sidata = LOADADDR (.data)
                0x20000008                __data_start = .
                0x20000008                _sdata = .
 *(.jcr)
 .jcr           0x20000008        0x0 c:/actel/libero_v9.1/softconsole/sourcery-g++/bin/../lib/gcc/arm-none-eabi/4.4.1/thumb2/crtbegin.o
 .jcr           0x20000008        0x4 c:/actel/libero_v9.1/softconsole/sourcery-g++/bin/../lib/gcc/arm-none-eabi/4.4.1/thumb2/crtend.o
 *(.got.plt)
 *(.got)
 *(.shdata)
 *(.data .data.* .gnu.linkonce.d.*)
 .data.my_ip    0x2000000c        0x4 ./mac/tcpip.o
                0x2000000c                my_ip
 .data.my_mac   0x20000010        0x8 ./mac/tcpip.o
                0x20000010                my_mac
 .data.ethAddr  0x20000018        0x8 ./application_tasks/http_task.o
                0x20000018                ethAddr
 .data.DNS_IP   0x20000020        0x4 ./application_tasks/http_task.o
 .data.json_requested
                0x20000024        0x1 ./application_tasks/http_task.o
 *fill*         0x20000025        0x3 00
 .data.clear_command
                0x20000028        0x4 ./application_tasks/lcd_task.o
 .data.httpScreen
                0x2000002c       0x50 ./application_tasks/lcd_task.o
 .data.nunchuckScreen
                0x2000007c       0x50 ./application_tasks/lcd_task.o
 .data.configScreen
                0x200000cc       0x50 ./application_tasks/lcd_task.o
 .data.saving   0x2000011c        0x8 ./application_tasks/lcd_task.o
 .data.transmit_buf
                0x20000124        0x4 ./application_tasks/nunchuck_task.o
                0x20000124                transmit_buf
 .data.xNextTaskUnblockTime
                0x20000128        0x2 ./FreeRTOS/tasks.o
 *fill*         0x2000012a        0x2 00
 .data.uxCriticalNesting
                0x2000012c        0x4 ./FreeRTOS/portable/GCC/ARM_CM3/port.o
 .data.numStepsX
                0x20000130        0x4 C:\Users\kylebs\Desktop\FreeRTOS-lwIP-takeDeux\FreeRTOS-lwIP\Webserver_uIPRTOS_SC_DF\EVAL_KIT\SF_Webserver_Demo\SoftConsole\Webserver_MSS_CM3_0\Webserver_MSS_CM3_0_hw_platform\Debug\libWebserver_MSS_CM3_0_hw_platform.a(plotter_platform.o)
                0x20000130                numStepsX
 .data.periodX  0x20000134        0x4 C:\Users\kylebs\Desktop\FreeRTOS-lwIP-takeDeux\FreeRTOS-lwIP\Webserver_uIPRTOS_SC_DF\EVAL_KIT\SF_Webserver_Demo\SoftConsole\Webserver_MSS_CM3_0\Webserver_MSS_CM3_0_hw_platform\Debug\libWebserver_MSS_CM3_0_hw_platform.a(plotter_platform.o)
                0x20000134                periodX
 .data.numStepsY
                0x20000138        0x4 C:\Users\kylebs\Desktop\FreeRTOS-lwIP-takeDeux\FreeRTOS-lwIP\Webserver_uIPRTOS_SC_DF\EVAL_KIT\SF_Webserver_Demo\SoftConsole\Webserver_MSS_CM3_0\Webserver_MSS_CM3_0_hw_platform\Debug\libWebserver_MSS_CM3_0_hw_platform.a(plotter_platform.o)
                0x20000138                numStepsY
 .data.periodY  0x2000013c        0x4 C:\Users\kylebs\Desktop\FreeRTOS-lwIP-takeDeux\FreeRTOS-lwIP\Webserver_uIPRTOS_SC_DF\EVAL_KIT\SF_Webserver_Demo\SoftConsole\Webserver_MSS_CM3_0\Webserver_MSS_CM3_0_hw_platform\Debug\libWebserver_MSS_CM3_0_hw_platform.a(plotter_platform.o)
                0x2000013c                periodY
 .data.GO       0x20000140        0x4 C:\Users\kylebs\Desktop\FreeRTOS-lwIP-takeDeux\FreeRTOS-lwIP\Webserver_uIPRTOS_SC_DF\EVAL_KIT\SF_Webserver_Demo\SoftConsole\Webserver_MSS_CM3_0\Webserver_MSS_CM3_0_hw_platform\Debug\libWebserver_MSS_CM3_0_hw_platform.a(plotter_platform.o)
                0x20000140                GO
 .data.globalPositionX
                0x20000144        0x4 C:\Users\kylebs\Desktop\FreeRTOS-lwIP-takeDeux\FreeRTOS-lwIP\Webserver_uIPRTOS_SC_DF\EVAL_KIT\SF_Webserver_Demo\SoftConsole\Webserver_MSS_CM3_0\Webserver_MSS_CM3_0_hw_platform\Debug\libWebserver_MSS_CM3_0_hw_platform.a(plotter_platform.o)
                0x20000144                globalPositionX
 .data.globalPositionY
                0x20000148        0x4 C:\Users\kylebs\Desktop\FreeRTOS-lwIP-takeDeux\FreeRTOS-lwIP\Webserver_uIPRTOS_SC_DF\EVAL_KIT\SF_Webserver_Demo\SoftConsole\Webserver_MSS_CM3_0\Webserver_MSS_CM3_0_hw_platform\Debug\libWebserver_MSS_CM3_0_hw_platform.a(plotter_platform.o)
                0x20000148                globalPositionY
 .data.finishedGlobalPositionX
                0x2000014c        0x4 C:\Users\kylebs\Desktop\FreeRTOS-lwIP-takeDeux\FreeRTOS-lwIP\Webserver_uIPRTOS_SC_DF\EVAL_KIT\SF_Webserver_Demo\SoftConsole\Webserver_MSS_CM3_0\Webserver_MSS_CM3_0_hw_platform\Debug\libWebserver_MSS_CM3_0_hw_platform.a(plotter_platform.o)
                0x2000014c                finishedGlobalPositionX
 .data.finishedGlobalPositionY
                0x20000150        0x4 C:\Users\kylebs\Desktop\FreeRTOS-lwIP-takeDeux\FreeRTOS-lwIP\Webserver_uIPRTOS_SC_DF\EVAL_KIT\SF_Webserver_Demo\SoftConsole\Webserver_MSS_CM3_0\Webserver_MSS_CM3_0_hw_platform\Debug\libWebserver_MSS_CM3_0_hw_platform.a(plotter_platform.o)
                0x20000150                finishedGlobalPositionY
 .data.penWrite
                0x20000154        0x4 C:\Users\kylebs\Desktop\FreeRTOS-lwIP-takeDeux\FreeRTOS-lwIP\Webserver_uIPRTOS_SC_DF\EVAL_KIT\SF_Webserver_Demo\SoftConsole\Webserver_MSS_CM3_0\Webserver_MSS_CM3_0_hw_platform\Debug\libWebserver_MSS_CM3_0_hw_platform.a(plotter_platform.o)
                0x20000154                penWrite
 .data.maximumX
                0x20000158        0x4 C:\Users\kylebs\Desktop\FreeRTOS-lwIP-takeDeux\FreeRTOS-lwIP\Webserver_uIPRTOS_SC_DF\EVAL_KIT\SF_Webserver_Demo\SoftConsole\Webserver_MSS_CM3_0\Webserver_MSS_CM3_0_hw_platform\Debug\libWebserver_MSS_CM3_0_hw_platform.a(plotter_platform.o)
                0x20000158                maximumX
 .data.maximumY
                0x2000015c        0x4 C:\Users\kylebs\Desktop\FreeRTOS-lwIP-takeDeux\FreeRTOS-lwIP\Webserver_uIPRTOS_SC_DF\EVAL_KIT\SF_Webserver_Demo\SoftConsole\Webserver_MSS_CM3_0\Webserver_MSS_CM3_0_hw_platform\Debug\libWebserver_MSS_CM3_0_hw_platform.a(plotter_platform.o)
                0x2000015c                maximumY
 .data.fabIntStatus
                0x20000160        0x4 C:\Users\kylebs\Desktop\FreeRTOS-lwIP-takeDeux\FreeRTOS-lwIP\Webserver_uIPRTOS_SC_DF\EVAL_KIT\SF_Webserver_Demo\SoftConsole\Webserver_MSS_CM3_0\Webserver_MSS_CM3_0_hw_platform\Debug\libWebserver_MSS_CM3_0_hw_platform.a(plotter_platform.o)
                0x20000160                fabIntStatus
 .data.SystemFrequency
                0x20000164        0x4 C:\Users\kylebs\Desktop\FreeRTOS-lwIP-takeDeux\FreeRTOS-lwIP\Webserver_uIPRTOS_SC_DF\EVAL_KIT\SF_Webserver_Demo\SoftConsole\Webserver_MSS_CM3_0\Webserver_MSS_CM3_0_hw_platform\Debug\libWebserver_MSS_CM3_0_hw_platform.a(system_a2fxxxm3.o)
                0x20000164                SystemFrequency
 .data.SystemCoreClock
                0x20000168        0x4 C:\Users\kylebs\Desktop\FreeRTOS-lwIP-takeDeux\FreeRTOS-lwIP\Webserver_uIPRTOS_SC_DF\EVAL_KIT\SF_Webserver_Demo\SoftConsole\Webserver_MSS_CM3_0\Webserver_MSS_CM3_0_hw_platform\Debug\libWebserver_MSS_CM3_0_hw_platform.a(system_a2fxxxm3.o)
                0x20000168                SystemCoreClock
 .data.g_FrequencyPCLK0
                0x2000016c        0x4 C:\Users\kylebs\Desktop\FreeRTOS-lwIP-takeDeux\FreeRTOS-lwIP\Webserver_uIPRTOS_SC_DF\EVAL_KIT\SF_Webserver_Demo\SoftConsole\Webserver_MSS_CM3_0\Webserver_MSS_CM3_0_hw_platform\Debug\libWebserver_MSS_CM3_0_hw_platform.a(system_a2fxxxm3.o)
                0x2000016c                g_FrequencyPCLK0
 .data.g_FrequencyPCLK1
                0x20000170        0x4 C:\Users\kylebs\Desktop\FreeRTOS-lwIP-takeDeux\FreeRTOS-lwIP\Webserver_uIPRTOS_SC_DF\EVAL_KIT\SF_Webserver_Demo\SoftConsole\Webserver_MSS_CM3_0\Webserver_MSS_CM3_0_hw_platform\Debug\libWebserver_MSS_CM3_0_hw_platform.a(system_a2fxxxm3.o)
                0x20000170                g_FrequencyPCLK1
 .data.g_FrequencyACE
                0x20000174        0x4 C:\Users\kylebs\Desktop\FreeRTOS-lwIP-takeDeux\FreeRTOS-lwIP\Webserver_uIPRTOS_SC_DF\EVAL_KIT\SF_Webserver_Demo\SoftConsole\Webserver_MSS_CM3_0\Webserver_MSS_CM3_0_hw_platform\Debug\libWebserver_MSS_CM3_0_hw_platform.a(system_a2fxxxm3.o)
                0x20000174                g_FrequencyACE
 .data.g_FrequencyFPGA
                0x20000178        0x4 C:\Users\kylebs\Desktop\FreeRTOS-lwIP-takeDeux\FreeRTOS-lwIP\Webserver_uIPRTOS_SC_DF\EVAL_KIT\SF_Webserver_Demo\SoftConsole\Webserver_MSS_CM3_0\Webserver_MSS_CM3_0_hw_platform\Debug\libWebserver_MSS_CM3_0_hw_platform.a(system_a2fxxxm3.o)
                0x20000178                g_FrequencyFPGA
 .data          0x2000017c       0xf4 c:/actel/libero_v9.1/softconsole/sourcery-g++/bin/../lib/gcc/arm-none-eabi/4.4.1/../../../../arm-none-eabi/lib/thumb2\libc.a(lib_a-impure.o)
                0x2000017c                _impure_ptr
 .data          0x20000270      0x410 c:/actel/libero_v9.1/softconsole/sourcery-g++/bin/../lib/gcc/arm-none-eabi/4.4.1/../../../../arm-none-eabi/lib/thumb2\libc.a(lib_a-mallocr.o)
                0x20000270                __malloc_av_
                0x20000678                __malloc_sbrk_base
                0x2000067c                __malloc_trim_threshold
 .data          0x20000680        0x8 c:/actel/libero_v9.1/softconsole/sourcery-g++/bin/../lib/gcc/arm-none-eabi/4.4.1/../../../../arm-none-eabi/lib/thumb2\libc.a(lib_a-ctype_.o)
                0x20000680                __ctype_ptr
                0x20000684                __ctype_ptr__
 .data          0x20000688       0x10 c:/actel/libero_v9.1/softconsole/sourcery-g++/bin/../lib/gcc/arm-none-eabi/4.4.1/../../../../arm-none-eabi/lib/thumb2\libc.a(lib_a-locale.o)
                0x20000688                __mb_cur_max
                0x2000068c                __lc_ctype
 .data          0x20000698       0x28 c:/actel/libero_v9.1/softconsole/sourcery-g++/bin/../lib/gcc/arm-none-eabi/4.4.1/../../../../arm-none-eabi/lib/thumb2\libc.a(lib_a-strtod.o)
                0x200006c0                . = ALIGN (0x4)
                0x200006c0                _edata = .

.bss            0x200006c0     0x7d80 load address 0x6001bb54
                0x200006c0                __bss_start__ = .
                0x200006c0                _sbss = .
 *(.shbss)
 *(.bss .bss.* .gnu.linkonce.b.*)
 .bss           0x200006c0        0x1 c:/actel/libero_v9.1/softconsole/sourcery-g++/bin/../lib/gcc/arm-none-eabi/4.4.1/thumb2/crtbegin.o
 *fill*         0x200006c1        0x3 00
 .bss.xSemHand_controller
                0x200006c4        0x4 ./main.o
                0x200006c4                xSemHand_controller
 .bss.xSemHand_lcd
                0x200006c8        0x4 ./main.o
                0x200006c8                xSemHand_lcd
 .bss.xSemHand_nunchuck
                0x200006cc        0x4 ./main.o
                0x200006cc                xSemHand_nunchuck
 .bss.xSemHand_http
                0x200006d0        0x4 ./main.o
                0x200006d0                xSemHand_http
 .bss.xSemHand_json
                0x200006d4        0x4 ./main.o
                0x200006d4                xSemHand_json
 .bss.xSemHand_plotter
                0x200006d8        0x4 ./main.o
                0x200006d8                xSemHand_plotter
 .bss.xHand_controller
                0x200006dc        0x4 ./main.o
                0x200006dc                xHand_controller
 .bss.xHand_lcd
                0x200006e0        0x4 ./main.o
                0x200006e0                xHand_lcd
 .bss.xHand_nunchuck
                0x200006e4        0x4 ./main.o
                0x200006e4                xHand_nunchuck
 .bss.xHand_http
                0x200006e8        0x4 ./main.o
                0x200006e8                xHand_http
 .bss.xHigherPriorityTaskWoken.4483
                0x200006ec        0x4 ./main.o
 .bss.s         0x200006f0      0x180 ./webclient/webclient.o
 .bss.i.2830    0x20000870        0x1 ./webclient/webclient.o
 .bss.c.2809    0x20000871        0x1 ./webclient/webclient.o
 *fill*         0x20000872        0x2 00
 .bss.addr.2698
                0x20000874        0x4 ./webclient/webclient.o
 .bss.addr.2675
                0x20000878        0x4 ./webclient/webclient.o
 .bss.uip_ethaddr
                0x2000087c        0x8 ./uip/uip.o
                0x2000087c                uip_ethaddr
 .bss.ipid      0x20000884        0x2 ./uip/uip.o
 *fill*         0x20000886        0x2 00
 .bss.iss       0x20000888        0x4 ./uip/uip.o
 .bss.lastport  0x2000088c        0x2 ./uip/uip.o
 .bss.c         0x2000088e        0x1 ./uip/uip.o
 .bss.opt       0x2000088f        0x1 ./uip/uip.o
 .bss.tmp16     0x20000890        0x2 ./uip/uip.o
 *fill*         0x20000892        0x2 00
 .bss.arp_table
                0x20000894       0x60 ./uip/uip_arp.o
 .bss.ipaddr    0x200008f4        0x4 ./uip/uip_arp.o
 .bss.i         0x200008f8        0x1 ./uip/uip_arp.o
 .bss.c         0x200008f9        0x1 ./uip/uip_arp.o
 .bss.arptime   0x200008fa        0x1 ./uip/uip_arp.o
 .bss.tmpage    0x200008fb        0x1 ./uip/uip_arp.o
 .bss.names     0x200008fc       0xa8 ./resolv/resolv.o
 .bss.seqno     0x200009a4        0x1 ./resolv/resolv.o
 *fill*         0x200009a5        0x3 00
 .bss.resolv_conn
                0x200009a8        0x4 ./resolv/resolv.o
 .bss.i.2892    0x200009ac        0x1 ./resolv/resolv.o
 .bss.i.2853    0x200009ad        0x1 ./resolv/resolv.o
 .bss.lseqi.2811
                0x200009ae        0x1 ./resolv/resolv.o
 .bss.lseq.2810
                0x200009af        0x1 ./resolv/resolv.o
 .bss.i.2809    0x200009b0        0x1 ./resolv/resolv.o
 *fill*         0x200009b1        0x3 00
 .bss.num_pkt_tx
                0x200009b4        0x4 ./mac/tcpip.o
                0x200009b4                num_pkt_tx
 .bss.num_pkt_rx
                0x200009b8        0x4 ./mac/tcpip.o
                0x200009b8                num_pkt_rx
 .bss.g_uart_rx
                0x200009bc        0x8 ./application_tasks/controller_task.o
 .bss.plotter_mode_changed
                0x200009c4        0x2 ./application_tasks/controller_task.o
 *fill*         0x200009c6        0x2 00
 .bss.xHigherPriorityTaskWoken.4556
                0x200009c8        0x4 ./application_tasks/controller_task.o
 .bss.xHigherPriorityTaskWoken.4494
                0x200009cc        0x4 ./application_tasks/controller_task.o
 .bss.JSMN_parser
                0x200009d0        0xc ./application_tasks/http_task.o
 .bss.JSON_buffer_size
                0x200009dc        0x4 ./application_tasks/http_task.o
                0x200009dc                JSON_buffer_size
 .bss.temp_buf  0x200009e0      0x800 ./application_tasks/http_task.o
 .bss.http_init_done
                0x200011e0        0x1 ./application_tasks/http_task.o
 .bss.http_received
                0x200011e1        0x1 ./application_tasks/http_task.o
 *fill*         0x200011e2        0x2 00
 .bss.sTempAddr.5241
                0x200011e4        0x8 ./application_tasks/http_task.o
 .bss.debug_mode
                0x200011ec        0x1 ./application_tasks/lcd_task.o
 .bss.cursor_pos
                0x200011ed        0x1 ./application_tasks/lcd_task.o
 *fill*         0x200011ee        0x2 00
 .bss.output_buffer
                0x200011f0       0x50 ./application_tasks/lcd_task.o
 .bss.ZC        0x20001240        0x4 ./application_tasks/nunchuck_task.o
 .bss.complete  0x20001244        0x4 ./application_tasks/nunchuck_task.o
 .bss.transmit_buf2
                0x20001248        0x4 ./application_tasks/nunchuck_task.o
                0x20001248                transmit_buf2
 .bss.pxCurrentTCB
                0x2000124c        0x4 ./FreeRTOS/tasks.o
                0x2000124c                pxCurrentTCB
 .bss.pxReadyTasksLists
                0x20001250       0x64 ./FreeRTOS/tasks.o
 .bss.xDelayedTaskList1
                0x200012b4       0x14 ./FreeRTOS/tasks.o
 .bss.xDelayedTaskList2
                0x200012c8       0x14 ./FreeRTOS/tasks.o
 .bss.pxDelayedTaskList
                0x200012dc        0x4 ./FreeRTOS/tasks.o
 .bss.pxOverflowDelayedTaskList
                0x200012e0        0x4 ./FreeRTOS/tasks.o
 .bss.xPendingReadyList
                0x200012e4       0x14 ./FreeRTOS/tasks.o
 .bss.xTasksWaitingTermination
                0x200012f8       0x14 ./FreeRTOS/tasks.o
 .bss.uxTasksDeleted
                0x2000130c        0x4 ./FreeRTOS/tasks.o
 .bss.xSuspendedTaskList
                0x20001310       0x14 ./FreeRTOS/tasks.o
 .bss.uxCurrentNumberOfTasks
                0x20001324        0x4 ./FreeRTOS/tasks.o
 .bss.xTickCount
                0x20001328        0x2 ./FreeRTOS/tasks.o
 *fill*         0x2000132a        0x2 00
 .bss.uxTopUsedPriority
                0x2000132c        0x4 ./FreeRTOS/tasks.o
 .bss.uxTopReadyPriority
                0x20001330        0x4 ./FreeRTOS/tasks.o
 .bss.xSchedulerRunning
                0x20001334        0x4 ./FreeRTOS/tasks.o
 .bss.uxSchedulerSuspended
                0x20001338        0x4 ./FreeRTOS/tasks.o
 .bss.uxMissedTicks
                0x2000133c        0x4 ./FreeRTOS/tasks.o
 .bss.xMissedYield
                0x20001340        0x4 ./FreeRTOS/tasks.o
 .bss.xNumOfOverflows
                0x20001344        0x4 ./FreeRTOS/tasks.o
 .bss.uxTaskNumber
                0x20001348        0x4 ./FreeRTOS/tasks.o
 .bss.ulTaskSwitchedInTime
                0x2000134c        0x4 ./FreeRTOS/tasks.o
 .bss.xActiveTimerList1
                0x20001350       0x14 ./FreeRTOS/timers.o
 .bss.xActiveTimerList2
                0x20001364       0x14 ./FreeRTOS/timers.o
 .bss.pxCurrentTimerList
                0x20001378        0x4 ./FreeRTOS/timers.o
 .bss.pxOverflowTimerList
                0x2000137c        0x4 ./FreeRTOS/timers.o
 .bss.xTimerQueue
                0x20001380        0x4 ./FreeRTOS/timers.o
 .bss.xLastTime.1721
                0x20001384        0x2 ./FreeRTOS/timers.o
 *fill*         0x20001386        0x2 00
 .bss.g_stdio_uart_init_done
                0x20001388        0x4 C:/Users/kylebs/Desktop/FreeRTOS-lwIP-takeDeux/FreeRTOS-lwIP/Webserver_uIPRTOS_SC_DF/EVAL_KIT/SF_Webserver_Demo/SoftConsole/Webserver_MSS_CM3_0/Webserver_MSS_CM3_0_hw_platform/Debug/CMSIS/startup_gcc/newlib_stubs.o
 .bss.heap_end.3825
                0x2000138c        0x4 C:/Users/kylebs/Desktop/FreeRTOS-lwIP-takeDeux/FreeRTOS-lwIP/Webserver_uIPRTOS_SC_DF/EVAL_KIT/SF_Webserver_Demo/SoftConsole/Webserver_MSS_CM3_0/Webserver_MSS_CM3_0_hw_platform/Debug/CMSIS/startup_gcc/newlib_stubs.o
 .bss.g_lcd_uart_init_done
                0x20001390        0x4 C:\Users\kylebs\Desktop\FreeRTOS-lwIP-takeDeux\FreeRTOS-lwIP\Webserver_uIPRTOS_SC_DF\EVAL_KIT\SF_Webserver_Demo\SoftConsole\Webserver_MSS_CM3_0\Webserver_MSS_CM3_0_hw_platform\Debug\libWebserver_MSS_CM3_0_hw_platform.a(plotter_platform.o)
                0x20001390                g_lcd_uart_init_done
 .bss.g_pdma_isr_table
                0x20001394       0x20 C:\Users\kylebs\Desktop\FreeRTOS-lwIP-takeDeux\FreeRTOS-lwIP\Webserver_uIPRTOS_SC_DF\EVAL_KIT\SF_Webserver_Demo\SoftConsole\Webserver_MSS_CM3_0\Webserver_MSS_CM3_0_hw_platform\Debug\libWebserver_MSS_CM3_0_hw_platform.a(mss_pdma.o)
 .bss.NULL_instance
                0x200013b4        0x4 C:\Users\kylebs\Desktop\FreeRTOS-lwIP-takeDeux\FreeRTOS-lwIP\Webserver_uIPRTOS_SC_DF\EVAL_KIT\SF_Webserver_Demo\SoftConsole\Webserver_MSS_CM3_0\Webserver_MSS_CM3_0_hw_platform\Debug\libWebserver_MSS_CM3_0_hw_platform.a(mss_ethernet_mac.o)
 .bss.NULL_buffer
                0x200013b8        0x4 C:\Users\kylebs\Desktop\FreeRTOS-lwIP-takeDeux\FreeRTOS-lwIP\Webserver_uIPRTOS_SC_DF\EVAL_KIT\SF_Webserver_Demo\SoftConsole\Webserver_MSS_CM3_0\Webserver_MSS_CM3_0_hw_platform\Debug\libWebserver_MSS_CM3_0_hw_platform.a(mss_ethernet_mac.o)
 .bss.NULL_callback
                0x200013bc        0x4 C:\Users\kylebs\Desktop\FreeRTOS-lwIP-takeDeux\FreeRTOS-lwIP\Webserver_uIPRTOS_SC_DF\EVAL_KIT\SF_Webserver_Demo\SoftConsole\Webserver_MSS_CM3_0\Webserver_MSS_CM3_0_hw_platform\Debug\libWebserver_MSS_CM3_0_hw_platform.a(mss_ethernet_mac.o)
 .bss           0x200013c0       0x34 c:/actel/libero_v9.1/softconsole/sourcery-g++/bin/../lib/gcc/arm-none-eabi/4.4.1/../../../../arm-none-eabi/lib/thumb2\libc.a(lib_a-mallocr.o)
                0x200013c0                __malloc_top_pad
                0x200013c4                __malloc_current_mallinfo
                0x200013ec                __malloc_max_sbrked_mem
                0x200013f0                __malloc_max_total_mem
 *(COMMON)
 COMMON         0x200013f4      0xa80 ./uip/uip.o
                0x200013f4                uip_len
                0x200013f8                uip_sappdata
                0x200013fc                uip_acc32
                0x20001400                uip_flags
                0x20001404                uip_udp_conn
                0x20001408                uip_appdata
                0x2000140c                uip_conn
                0x20001410                uip_conns
                0x20001748                uip_listenports
                0x20001750                uip_draddr
                0x20001754                uip_stat
                0x20001788                uip_netmask
                0x2000178c                uip_hostaddr
                0x20001790                uip_buf
                0x20001dd2                uip_slen
                0x20001dd4                uip_udp_conns
 COMMON         0x20001e74     0x2b18 ./mac/tcpip.o
                0x20001e74                ip_id
                0x20001e78                tcb
                0x20001ea0                dhcp_ip_found
                0x20001ea4                g_mac
                0x20004370                ip_known
                0x20004374                tcp_packet
                0x20004970                get_count
                0x20004978                oled_string
 COMMON         0x2000498c        0x1 ./application_tasks/controller_task.o
                0x2000498c                plotter_current_mode
 *fill*         0x2000498d        0x3 00
 COMMON         0x20004990     0x12fb ./application_tasks/http_task.o
                0x20004990                num_instructions
                0x20004992                next_job_id
                0x20004994                JSON_buffer
                0x20005194                num_queued_jobs
                0x20005198                plotter_instructions
                0x20005648                JSMN_tokens
                0x20005c88                cur_instruction
                0x20005c8a                ready_for_next_instruction
 *fill*         0x20005c8b        0x1 00
 COMMON         0x20005c8c        0xa ./application_tasks/nunchuck_task.o
                0x20005c8c                config_step
                0x20005c8d                controller_status
                0x20005c90                receive_buf
 *fill*         0x20005c96        0x2 00
 COMMON         0x20005c98       0x88 ./BSP/i2c_driver/i2c.o
                0x20005c98                g_mss_i2c0
                0x20005cdc                g_mss_i2c1
 COMMON         0x20005d20        0x8 C:\Users\kylebs\Desktop\FreeRTOS-lwIP-takeDeux\FreeRTOS-lwIP\Webserver_uIPRTOS_SC_DF\EVAL_KIT\SF_Webserver_Demo\SoftConsole\Webserver_MSS_CM3_0\Webserver_MSS_CM3_0_hw_platform\Debug\libWebserver_MSS_CM3_0_hw_platform.a(plotter_platform.o)
                0x20005d20                g_lcd_uart
 COMMON         0x20005d28       0x50 C:\Users\kylebs\Desktop\FreeRTOS-lwIP-takeDeux\FreeRTOS-lwIP\Webserver_uIPRTOS_SC_DF\EVAL_KIT\SF_Webserver_Demo\SoftConsole\Webserver_MSS_CM3_0\Webserver_MSS_CM3_0_hw_platform\Debug\libWebserver_MSS_CM3_0_hw_platform.a(mss_uart.o)
                0x20005d28                g_mss_uart1
                0x20005d50                g_mss_uart0
 COMMON         0x20005d78       0xf8 C:\Users\kylebs\Desktop\FreeRTOS-lwIP-takeDeux\FreeRTOS-lwIP\Webserver_uIPRTOS_SC_DF\EVAL_KIT\SF_Webserver_Demo\SoftConsole\Webserver_MSS_CM3_0\Webserver_MSS_CM3_0_hw_platform\Debug\libWebserver_MSS_CM3_0_hw_platform.a(mss_spi.o)
                0x20005d78                g_mss_spi1
                0x20005df4                g_mss_spi0
 COMMON         0x20005e70     0x24cc C:\Users\kylebs\Desktop\FreeRTOS-lwIP-takeDeux\FreeRTOS-lwIP\Webserver_uIPRTOS_SC_DF\EVAL_KIT\SF_Webserver_Demo\SoftConsole\Webserver_MSS_CM3_0\Webserver_MSS_CM3_0_hw_platform\Debug\libWebserver_MSS_CM3_0_hw_platform.a(mss_ethernet_mac.o)
                0x20005e70                g_mss_mac
 COMMON         0x2000833c        0x4 c:/actel/libero_v9.1/softconsole/sourcery-g++/bin/../lib/gcc/arm-none-eabi/4.4.1/../../../../arm-none-eabi/lib/thumb2\libc.a(lib_a-reent.o)
                0x2000833c                errno
 COMMON         0x20008340      0x100 c:/actel/libero_v9.1/softconsole/sourcery-g++/bin/../lib/gcc/arm-none-eabi/4.4.1/../../../../arm-none-eabi/lib/thumb2\libc.a(lib_a-gdtoa-gethex.o)
                0x20008340                __hexdig
                0x20008440                . = ALIGN (0x8)
                0x20008440                __bss_end__ = .
                0x20008440                _end = .
                0x20008440                __end = _end
                0x20008440                _ebss = .
                0x20008440                PROVIDE (end, .)

.stab
 *(.stab)

.stabstr
 *(.stabstr)

.debug
 *(.debug)

.line
 *(.line)

.debug_srcinfo
 *(.debug_srcinfo)

.debug_sfnames
 *(.debug_sfnames)

.comment        0x00000000      0x68d
 .comment       0x00000000       0x2b ./main.o
 .comment       0x0000002b       0x2b ./webclient/webclient-strings.o
 .comment       0x00000056       0x2b ./webclient/webclient.o
 .comment       0x00000081       0x2b ./uip/psock.o
 .comment       0x000000ac       0x2b ./uip/uip-fw.o
 .comment       0x000000d7       0x2b ./uip/uip-neighbor.o
 .comment       0x00000102       0x2b ./uip/uip-split.o
 .comment       0x0000012d       0x2b ./uip/uip.o
 .comment       0x00000158       0x2b ./uip/uip_arp.o
 .comment       0x00000183       0x2b ./uip/uiplib.o
 .comment       0x000001ae       0x2b ./resolv/resolv.o
 .comment       0x000001d9       0x2b ./mac/tcpip.o
 .comment       0x00000204       0x2b ./jsmn/jsmn.o
 .comment       0x0000022f       0x2b ./application_tasks/controller_task.o
 .comment       0x0000025a       0x2b ./application_tasks/http_task.o
 .comment       0x00000285       0x2b ./application_tasks/lcd_task.o
 .comment       0x000002b0       0x2b ./application_tasks/nunchuck_task.o
 .comment       0x000002db       0x2b ./FreeRTOS/list.o
 .comment       0x00000306       0x2b ./FreeRTOS/queue.o
 .comment       0x00000331       0x2b ./FreeRTOS/tasks.o
 .comment       0x0000035c       0x2b ./FreeRTOS/timers.o
 .comment       0x00000387       0x2b ./FreeRTOS/portable/MemMang/heap_3.o
 .comment       0x000003b2       0x2b ./FreeRTOS/portable/GCC/ARM_CM3/port.o
 .comment       0x000003dd       0x2b ./BSP/spi_flash_driver/spi_flash.o
 .comment       0x00000408       0x2b ./BSP/i2c_driver/i2c.o
 .comment       0x00000433       0x2b ./BSP/emc_driver/nor.o
 .comment       0x0000045e       0x2b C:/Users/kylebs/Desktop/FreeRTOS-lwIP-takeDeux/FreeRTOS-lwIP/Webserver_uIPRTOS_SC_DF/EVAL_KIT/SF_Webserver_Demo/SoftConsole/Webserver_MSS_CM3_0/Webserver_MSS_CM3_0_hw_platform/Debug/CMSIS/startup_gcc/newlib_stubs.o
 .comment       0x00000489       0x2b C:\Users\kylebs\Desktop\FreeRTOS-lwIP-takeDeux\FreeRTOS-lwIP\Webserver_uIPRTOS_SC_DF\EVAL_KIT\SF_Webserver_Demo\SoftConsole\Webserver_MSS_CM3_0\Webserver_MSS_CM3_0_hw_platform\Debug\libWebserver_MSS_CM3_0_hw_platform.a(plotter_platform.o)
 .comment       0x000004b4       0x2b C:\Users\kylebs\Desktop\FreeRTOS-lwIP-takeDeux\FreeRTOS-lwIP\Webserver_uIPRTOS_SC_DF\EVAL_KIT\SF_Webserver_Demo\SoftConsole\Webserver_MSS_CM3_0\Webserver_MSS_CM3_0_hw_platform\Debug\libWebserver_MSS_CM3_0_hw_platform.a(mss_uart.o)
 .comment       0x000004df       0x2b C:\Users\kylebs\Desktop\FreeRTOS-lwIP-takeDeux\FreeRTOS-lwIP\Webserver_uIPRTOS_SC_DF\EVAL_KIT\SF_Webserver_Demo\SoftConsole\Webserver_MSS_CM3_0\Webserver_MSS_CM3_0_hw_platform\Debug\libWebserver_MSS_CM3_0_hw_platform.a(mss_spi.o)
 .comment       0x0000050a       0x2b C:\Users\kylebs\Desktop\FreeRTOS-lwIP-takeDeux\FreeRTOS-lwIP\Webserver_uIPRTOS_SC_DF\EVAL_KIT\SF_Webserver_Demo\SoftConsole\Webserver_MSS_CM3_0\Webserver_MSS_CM3_0_hw_platform\Debug\libWebserver_MSS_CM3_0_hw_platform.a(mss_pdma.o)
 .comment       0x00000535       0x2b C:\Users\kylebs\Desktop\FreeRTOS-lwIP-takeDeux\FreeRTOS-lwIP\Webserver_uIPRTOS_SC_DF\EVAL_KIT\SF_Webserver_Demo\SoftConsole\Webserver_MSS_CM3_0\Webserver_MSS_CM3_0_hw_platform\Debug\libWebserver_MSS_CM3_0_hw_platform.a(mss_gpio.o)
 .comment       0x00000560       0x2b C:\Users\kylebs\Desktop\FreeRTOS-lwIP-takeDeux\FreeRTOS-lwIP\Webserver_uIPRTOS_SC_DF\EVAL_KIT\SF_Webserver_Demo\SoftConsole\Webserver_MSS_CM3_0\Webserver_MSS_CM3_0_hw_platform\Debug\libWebserver_MSS_CM3_0_hw_platform.a(mss_ethernet_mac.o)
 .comment       0x0000058b       0x2b C:\Users\kylebs\Desktop\FreeRTOS-lwIP-takeDeux\FreeRTOS-lwIP\Webserver_uIPRTOS_SC_DF\EVAL_KIT\SF_Webserver_Demo\SoftConsole\Webserver_MSS_CM3_0\Webserver_MSS_CM3_0_hw_platform\Debug\libWebserver_MSS_CM3_0_hw_platform.a(phy.o)
 .comment       0x000005b6       0x2b C:\Users\kylebs\Desktop\FreeRTOS-lwIP-takeDeux\FreeRTOS-lwIP\Webserver_uIPRTOS_SC_DF\EVAL_KIT\SF_Webserver_Demo\SoftConsole\Webserver_MSS_CM3_0\Webserver_MSS_CM3_0_hw_platform\Debug\libWebserver_MSS_CM3_0_hw_platform.a(core_uart_apb.o)
 .comment       0x000005e1       0x2b C:\Users\kylebs\Desktop\FreeRTOS-lwIP-takeDeux\FreeRTOS-lwIP\Webserver_uIPRTOS_SC_DF\EVAL_KIT\SF_Webserver_Demo\SoftConsole\Webserver_MSS_CM3_0\Webserver_MSS_CM3_0_hw_platform\Debug\libWebserver_MSS_CM3_0_hw_platform.a(core_cm3.o)
 .comment       0x0000060c       0x2b C:\Users\kylebs\Desktop\FreeRTOS-lwIP-takeDeux\FreeRTOS-lwIP\Webserver_uIPRTOS_SC_DF\EVAL_KIT\SF_Webserver_Demo\SoftConsole\Webserver_MSS_CM3_0\Webserver_MSS_CM3_0_hw_platform\Debug\libWebserver_MSS_CM3_0_hw_platform.a(system_a2fxxxm3.o)
 .comment       0x00000637       0x2b C:\Users\kylebs\Desktop\FreeRTOS-lwIP-takeDeux\FreeRTOS-lwIP\Webserver_uIPRTOS_SC_DF\EVAL_KIT\SF_Webserver_Demo\SoftConsole\Webserver_MSS_CM3_0\Webserver_MSS_CM3_0_hw_platform\Debug\libWebserver_MSS_CM3_0_hw_platform.a(hal_assert.o)
 .comment       0x00000662       0x2b C:\Users\kylebs\Desktop\FreeRTOS-lwIP-takeDeux\FreeRTOS-lwIP\Webserver_uIPRTOS_SC_DF\EVAL_KIT\SF_Webserver_Demo\SoftConsole\Webserver_MSS_CM3_0\Webserver_MSS_CM3_0_hw_platform\Debug\libWebserver_MSS_CM3_0_hw_platform.a(crc32.o)

.debug_aranges  0x00000000     0x10d8
 *(.debug_aranges)
 .debug_aranges
                0x00000000       0x78 ./main.o
 .debug_aranges
                0x00000078       0xa0 ./webclient/webclient.o
 .debug_aranges
                0x00000118       0x78 ./uip/psock.o
 .debug_aranges
                0x00000190       0x68 ./uip/uip-fw.o
 .debug_aranges
                0x000001f8       0x48 ./uip/uip-neighbor.o
 .debug_aranges
                0x00000240       0x20 ./uip/uip-split.o
 .debug_aranges
                0x00000260       0xa0 ./uip/uip.o
 .debug_aranges
                0x00000300       0x40 ./uip/uip_arp.o
 .debug_aranges
                0x00000340       0x20 ./uip/uiplib.o
 .debug_aranges
                0x00000360       0x60 ./resolv/resolv.o
 .debug_aranges
                0x000003c0       0xb0 ./mac/tcpip.o
 .debug_aranges
                0x00000470       0x48 ./jsmn/jsmn.o
 .debug_aranges
                0x000004b8       0x40 ./application_tasks/controller_task.o
 .debug_aranges
                0x000004f8       0x88 ./application_tasks/http_task.o
 .debug_aranges
                0x00000580       0x38 ./application_tasks/lcd_task.o
 .debug_aranges
                0x000005b8       0x28 ./application_tasks/nunchuck_task.o
 .debug_aranges
                0x000005e0       0x40 ./FreeRTOS/list.o
 .debug_aranges
                0x00000620       0xb8 ./FreeRTOS/queue.o
 .debug_aranges
                0x000006d8      0x150 ./FreeRTOS/tasks.o
 .debug_aranges
                0x00000828       0x88 ./FreeRTOS/timers.o
 .debug_aranges
                0x000008b0       0x28 ./FreeRTOS/portable/MemMang/heap_3.o
 .debug_aranges
                0x000008d8       0x70 ./FreeRTOS/portable/GCC/ARM_CM3/port.o
 .debug_aranges
                0x00000948       0x48 ./BSP/spi_flash_driver/spi_flash.o
 .debug_aranges
                0x00000990       0xb0 ./BSP/i2c_driver/i2c.o
 .debug_aranges
                0x00000a40       0x50 ./BSP/emc_driver/nor.o
 .debug_aranges
                0x00000a90       0xa8 C:/Users/kylebs/Desktop/FreeRTOS-lwIP-takeDeux/FreeRTOS-lwIP/Webserver_uIPRTOS_SC_DF/EVAL_KIT/SF_Webserver_Demo/SoftConsole/Webserver_MSS_CM3_0/Webserver_MSS_CM3_0_hw_platform/Debug/CMSIS/startup_gcc/newlib_stubs.o
 .debug_aranges
                0x00000b38       0x20 C:\Users\kylebs\Desktop\FreeRTOS-lwIP-takeDeux\FreeRTOS-lwIP\Webserver_uIPRTOS_SC_DF\EVAL_KIT\SF_Webserver_Demo\SoftConsole\Webserver_MSS_CM3_0\Webserver_MSS_CM3_0_hw_platform\Debug\libWebserver_MSS_CM3_0_hw_platform.a(plotter_platform.o)
 .debug_aranges
                0x00000b58       0xd8 C:\Users\kylebs\Desktop\FreeRTOS-lwIP-takeDeux\FreeRTOS-lwIP\Webserver_uIPRTOS_SC_DF\EVAL_KIT\SF_Webserver_Demo\SoftConsole\Webserver_MSS_CM3_0\Webserver_MSS_CM3_0_hw_platform\Debug\libWebserver_MSS_CM3_0_hw_platform.a(mss_uart.o)
 .debug_aranges
                0x00000c30       0xd8 C:\Users\kylebs\Desktop\FreeRTOS-lwIP-takeDeux\FreeRTOS-lwIP\Webserver_uIPRTOS_SC_DF\EVAL_KIT\SF_Webserver_Demo\SoftConsole\Webserver_MSS_CM3_0\Webserver_MSS_CM3_0_hw_platform\Debug\libWebserver_MSS_CM3_0_hw_platform.a(mss_spi.o)
 .debug_aranges
                0x00000d08       0x78 C:\Users\kylebs\Desktop\FreeRTOS-lwIP-takeDeux\FreeRTOS-lwIP\Webserver_uIPRTOS_SC_DF\EVAL_KIT\SF_Webserver_Demo\SoftConsole\Webserver_MSS_CM3_0\Webserver_MSS_CM3_0_hw_platform\Debug\libWebserver_MSS_CM3_0_hw_platform.a(mss_pdma.o)
 .debug_aranges
                0x00000d80       0x60 C:\Users\kylebs\Desktop\FreeRTOS-lwIP-takeDeux\FreeRTOS-lwIP\Webserver_uIPRTOS_SC_DF\EVAL_KIT\SF_Webserver_Demo\SoftConsole\Webserver_MSS_CM3_0\Webserver_MSS_CM3_0_hw_platform\Debug\libWebserver_MSS_CM3_0_hw_platform.a(mss_gpio.o)
 .debug_aranges
                0x00000de0      0x100 C:\Users\kylebs\Desktop\FreeRTOS-lwIP-takeDeux\FreeRTOS-lwIP\Webserver_uIPRTOS_SC_DF\EVAL_KIT\SF_Webserver_Demo\SoftConsole\Webserver_MSS_CM3_0\Webserver_MSS_CM3_0_hw_platform\Debug\libWebserver_MSS_CM3_0_hw_platform.a(mss_ethernet_mac.o)
 .debug_aranges
                0x00000ee0       0x70 C:\Users\kylebs\Desktop\FreeRTOS-lwIP-takeDeux\FreeRTOS-lwIP\Webserver_uIPRTOS_SC_DF\EVAL_KIT\SF_Webserver_Demo\SoftConsole\Webserver_MSS_CM3_0\Webserver_MSS_CM3_0_hw_platform\Debug\libWebserver_MSS_CM3_0_hw_platform.a(phy.o)
 .debug_aranges
                0x00000f50       0x48 C:\Users\kylebs\Desktop\FreeRTOS-lwIP-takeDeux\FreeRTOS-lwIP\Webserver_uIPRTOS_SC_DF\EVAL_KIT\SF_Webserver_Demo\SoftConsole\Webserver_MSS_CM3_0\Webserver_MSS_CM3_0_hw_platform\Debug\libWebserver_MSS_CM3_0_hw_platform.a(core_uart_apb.o)
 .debug_aranges
                0x00000f98       0xc8 C:\Users\kylebs\Desktop\FreeRTOS-lwIP-takeDeux\FreeRTOS-lwIP\Webserver_uIPRTOS_SC_DF\EVAL_KIT\SF_Webserver_Demo\SoftConsole\Webserver_MSS_CM3_0\Webserver_MSS_CM3_0_hw_platform\Debug\libWebserver_MSS_CM3_0_hw_platform.a(core_cm3.o)
 .debug_aranges
                0x00001060       0x30 C:\Users\kylebs\Desktop\FreeRTOS-lwIP-takeDeux\FreeRTOS-lwIP\Webserver_uIPRTOS_SC_DF\EVAL_KIT\SF_Webserver_Demo\SoftConsole\Webserver_MSS_CM3_0\Webserver_MSS_CM3_0_hw_platform\Debug\libWebserver_MSS_CM3_0_hw_platform.a(system_a2fxxxm3.o)
 .debug_aranges
                0x00001090       0x20 C:\Users\kylebs\Desktop\FreeRTOS-lwIP-takeDeux\FreeRTOS-lwIP\Webserver_uIPRTOS_SC_DF\EVAL_KIT\SF_Webserver_Demo\SoftConsole\Webserver_MSS_CM3_0\Webserver_MSS_CM3_0_hw_platform\Debug\libWebserver_MSS_CM3_0_hw_platform.a(hal_assert.o)
 .debug_aranges
                0x000010b0       0x28 C:\Users\kylebs\Desktop\FreeRTOS-lwIP-takeDeux\FreeRTOS-lwIP\Webserver_uIPRTOS_SC_DF\EVAL_KIT\SF_Webserver_Demo\SoftConsole\Webserver_MSS_CM3_0\Webserver_MSS_CM3_0_hw_platform\Debug\libWebserver_MSS_CM3_0_hw_platform.a(crc32.o)

.debug_pubnames
                0x00000000     0x259d
 *(.debug_pubnames)
 .debug_pubnames
                0x00000000      0x1b3 ./main.o
 .debug_pubnames
                0x000001b3      0x237 ./webclient/webclient-strings.o
 .debug_pubnames
                0x000003ea       0xd2 ./webclient/webclient.o
 .debug_pubnames
                0x000004bc       0x90 ./uip/psock.o
 .debug_pubnames
                0x0000054c       0x82 ./uip/uip-fw.o
 .debug_pubnames
                0x000005ce       0x87 ./uip/uip-neighbor.o
 .debug_pubnames
                0x00000655       0x27 ./uip/uip-split.o
 .debug_pubnames
                0x0000067c      0x1e9 ./uip/uip.o
 .debug_pubnames
                0x00000865       0x57 ./uip/uip_arp.o
 .debug_pubnames
                0x000008bc       0x28 ./uip/uiplib.o
 .debug_pubnames
                0x000008e4       0x7d ./resolv/resolv.o
 .debug_pubnames
                0x00000961      0x27c ./mac/tcpip.o
 .debug_pubnames
                0x00000bdd       0x2f ./jsmn/jsmn.o
 .debug_pubnames
                0x00000c0c       0x7e ./application_tasks/controller_task.o
 .debug_pubnames
                0x00000c8a      0x1e0 ./application_tasks/http_task.o
 .debug_pubnames
                0x00000e6a       0x50 ./application_tasks/lcd_task.o
 .debug_pubnames
                0x00000eba       0x90 ./application_tasks/nunchuck_task.o
 .debug_pubnames
                0x00000f4a       0x71 ./FreeRTOS/list.o
 .debug_pubnames
                0x00000fbb      0x1a6 ./FreeRTOS/queue.o
 .debug_pubnames
                0x00001161      0x2fd ./FreeRTOS/tasks.o
 .debug_pubnames
                0x0000145e       0x84 ./FreeRTOS/timers.o
 .debug_pubnames
                0x000014e2       0x31 ./FreeRTOS/portable/MemMang/heap_3.o
 .debug_pubnames
                0x00001513      0x101 ./FreeRTOS/portable/GCC/ARM_CM3/port.o
 .debug_pubnames
                0x00001614       0x65 ./BSP/spi_flash_driver/spi_flash.o
 .debug_pubnames
                0x00001679      0x17b ./BSP/i2c_driver/i2c.o
 .debug_pubnames
                0x000017f4       0x79 ./BSP/emc_driver/nor.o
 .debug_pubnames
                0x0000186d       0xeb C:/Users/kylebs/Desktop/FreeRTOS-lwIP-takeDeux/FreeRTOS-lwIP/Webserver_uIPRTOS_SC_DF/EVAL_KIT/SF_Webserver_Demo/SoftConsole/Webserver_MSS_CM3_0/Webserver_MSS_CM3_0_hw_platform/Debug/CMSIS/startup_gcc/newlib_stubs.o
 .debug_pubnames
                0x00001958      0x124 C:\Users\kylebs\Desktop\FreeRTOS-lwIP-takeDeux\FreeRTOS-lwIP\Webserver_uIPRTOS_SC_DF\EVAL_KIT\SF_Webserver_Demo\SoftConsole\Webserver_MSS_CM3_0\Webserver_MSS_CM3_0_hw_platform\Debug\libWebserver_MSS_CM3_0_hw_platform.a(plotter_platform.o)
 .debug_pubnames
                0x00001a7c      0x21c C:\Users\kylebs\Desktop\FreeRTOS-lwIP-takeDeux\FreeRTOS-lwIP\Webserver_uIPRTOS_SC_DF\EVAL_KIT\SF_Webserver_Demo\SoftConsole\Webserver_MSS_CM3_0\Webserver_MSS_CM3_0_hw_platform\Debug\libWebserver_MSS_CM3_0_hw_platform.a(mss_uart.o)
 .debug_pubnames
                0x00001c98      0x21a C:\Users\kylebs\Desktop\FreeRTOS-lwIP-takeDeux\FreeRTOS-lwIP\Webserver_uIPRTOS_SC_DF\EVAL_KIT\SF_Webserver_Demo\SoftConsole\Webserver_MSS_CM3_0\Webserver_MSS_CM3_0_hw_platform\Debug\libWebserver_MSS_CM3_0_hw_platform.a(mss_spi.o)
 .debug_pubnames
                0x00001eb2       0xdc C:\Users\kylebs\Desktop\FreeRTOS-lwIP-takeDeux\FreeRTOS-lwIP\Webserver_uIPRTOS_SC_DF\EVAL_KIT\SF_Webserver_Demo\SoftConsole\Webserver_MSS_CM3_0\Webserver_MSS_CM3_0_hw_platform\Debug\libWebserver_MSS_CM3_0_hw_platform.a(mss_pdma.o)
 .debug_pubnames
                0x00001f8e       0xb1 C:\Users\kylebs\Desktop\FreeRTOS-lwIP-takeDeux\FreeRTOS-lwIP\Webserver_uIPRTOS_SC_DF\EVAL_KIT\SF_Webserver_Demo\SoftConsole\Webserver_MSS_CM3_0\Webserver_MSS_CM3_0_hw_platform\Debug\libWebserver_MSS_CM3_0_hw_platform.a(mss_gpio.o)
 .debug_pubnames
                0x0000203f      0x1d7 C:\Users\kylebs\Desktop\FreeRTOS-lwIP-takeDeux\FreeRTOS-lwIP\Webserver_uIPRTOS_SC_DF\EVAL_KIT\SF_Webserver_Demo\SoftConsole\Webserver_MSS_CM3_0\Webserver_MSS_CM3_0_hw_platform\Debug\libWebserver_MSS_CM3_0_hw_platform.a(mss_ethernet_mac.o)
 .debug_pubnames
                0x00002216       0x96 C:\Users\kylebs\Desktop\FreeRTOS-lwIP-takeDeux\FreeRTOS-lwIP\Webserver_uIPRTOS_SC_DF\EVAL_KIT\SF_Webserver_Demo\SoftConsole\Webserver_MSS_CM3_0\Webserver_MSS_CM3_0_hw_platform\Debug\libWebserver_MSS_CM3_0_hw_platform.a(phy.o)
 .debug_pubnames
                0x000022ac       0x85 C:\Users\kylebs\Desktop\FreeRTOS-lwIP-takeDeux\FreeRTOS-lwIP\Webserver_uIPRTOS_SC_DF\EVAL_KIT\SF_Webserver_Demo\SoftConsole\Webserver_MSS_CM3_0\Webserver_MSS_CM3_0_hw_platform\Debug\libWebserver_MSS_CM3_0_hw_platform.a(core_uart_apb.o)
 .debug_pubnames
                0x00002331      0x159 C:\Users\kylebs\Desktop\FreeRTOS-lwIP-takeDeux\FreeRTOS-lwIP\Webserver_uIPRTOS_SC_DF\EVAL_KIT\SF_Webserver_Demo\SoftConsole\Webserver_MSS_CM3_0\Webserver_MSS_CM3_0_hw_platform\Debug\libWebserver_MSS_CM3_0_hw_platform.a(core_cm3.o)
 .debug_pubnames
                0x0000248a       0xb4 C:\Users\kylebs\Desktop\FreeRTOS-lwIP-takeDeux\FreeRTOS-lwIP\Webserver_uIPRTOS_SC_DF\EVAL_KIT\SF_Webserver_Demo\SoftConsole\Webserver_MSS_CM3_0\Webserver_MSS_CM3_0_hw_platform\Debug\libWebserver_MSS_CM3_0_hw_platform.a(system_a2fxxxm3.o)
 .debug_pubnames
                0x0000253e       0x26 C:\Users\kylebs\Desktop\FreeRTOS-lwIP-takeDeux\FreeRTOS-lwIP\Webserver_uIPRTOS_SC_DF\EVAL_KIT\SF_Webserver_Demo\SoftConsole\Webserver_MSS_CM3_0\Webserver_MSS_CM3_0_hw_platform\Debug\libWebserver_MSS_CM3_0_hw_platform.a(hal_assert.o)
 .debug_pubnames
                0x00002564       0x39 C:\Users\kylebs\Desktop\FreeRTOS-lwIP-takeDeux\FreeRTOS-lwIP\Webserver_uIPRTOS_SC_DF\EVAL_KIT\SF_Webserver_Demo\SoftConsole\Webserver_MSS_CM3_0\Webserver_MSS_CM3_0_hw_platform\Debug\libWebserver_MSS_CM3_0_hw_platform.a(crc32.o)

.debug_info     0x00000000    0x15cb5
 *(.debug_info .gnu.linkonce.wi.*)
 .debug_info    0x00000000     0x10ce ./main.o
 .debug_info    0x000010ce      0x3ed ./webclient/webclient-strings.o
 .debug_info    0x000014bb      0x823 ./webclient/webclient.o
 .debug_info    0x00001cde      0x771 ./uip/psock.o
 .debug_info    0x0000244f      0x640 ./uip/uip-fw.o
 .debug_info    0x00002a8f      0x2cf ./uip/uip-neighbor.o
 .debug_info    0x00002d5e      0x2a3 ./uip/uip-split.o
 .debug_info    0x00003001      0xf56 ./uip/uip.o
 .debug_info    0x00003f57      0x4a2 ./uip/uip_arp.o
 .debug_info    0x000043f9       0xf6 ./uip/uiplib.o
 .debug_info    0x000044ef      0x58d ./resolv/resolv.o
 .debug_info    0x00004a7c     0x1200 ./mac/tcpip.o
 .debug_info    0x00005c7c      0x3ec ./jsmn/jsmn.o
 .debug_info    0x00006068      0xa00 ./application_tasks/controller_task.o
 .debug_info    0x00006a68      0xace ./application_tasks/http_task.o
 .debug_info    0x00007536      0x338 ./application_tasks/lcd_task.o
 .debug_info    0x0000786e      0xbab ./application_tasks/nunchuck_task.o
 .debug_info    0x00008419      0x2b5 ./FreeRTOS/list.o
 .debug_info    0x000086ce      0x879 ./FreeRTOS/queue.o
 .debug_info    0x00008f47     0x1014 ./FreeRTOS/tasks.o
 .debug_info    0x00009f5b      0x758 ./FreeRTOS/timers.o
 .debug_info    0x0000a6b3       0xe8 ./FreeRTOS/portable/MemMang/heap_3.o
 .debug_info    0x0000a79b      0x208 ./FreeRTOS/portable/GCC/ARM_CM3/port.o
 .debug_info    0x0000a9a3      0xd9d ./BSP/spi_flash_driver/spi_flash.o
 .debug_info    0x0000b740     0x1249 ./BSP/i2c_driver/i2c.o
 .debug_info    0x0000c989      0x34d ./BSP/emc_driver/nor.o
 .debug_info    0x0000ccd6     0x10f0 C:/Users/kylebs/Desktop/FreeRTOS-lwIP-takeDeux/FreeRTOS-lwIP/Webserver_uIPRTOS_SC_DF/EVAL_KIT/SF_Webserver_Demo/SoftConsole/Webserver_MSS_CM3_0/Webserver_MSS_CM3_0_hw_platform/Debug/CMSIS/startup_gcc/newlib_stubs.o
 .debug_info    0x0000ddc6      0x2d6 C:\Users\kylebs\Desktop\FreeRTOS-lwIP-takeDeux\FreeRTOS-lwIP\Webserver_uIPRTOS_SC_DF\EVAL_KIT\SF_Webserver_Demo\SoftConsole\Webserver_MSS_CM3_0\Webserver_MSS_CM3_0_hw_platform\Debug\libWebserver_MSS_CM3_0_hw_platform.a(plotter_platform.o)
 .debug_info    0x0000e09c     0x15a4 C:\Users\kylebs\Desktop\FreeRTOS-lwIP-takeDeux\FreeRTOS-lwIP\Webserver_uIPRTOS_SC_DF\EVAL_KIT\SF_Webserver_Demo\SoftConsole\Webserver_MSS_CM3_0\Webserver_MSS_CM3_0_hw_platform\Debug\libWebserver_MSS_CM3_0_hw_platform.a(mss_uart.o)
 .debug_info    0x0000f640     0x13e5 C:\Users\kylebs\Desktop\FreeRTOS-lwIP-takeDeux\FreeRTOS-lwIP\Webserver_uIPRTOS_SC_DF\EVAL_KIT\SF_Webserver_Demo\SoftConsole\Webserver_MSS_CM3_0\Webserver_MSS_CM3_0_hw_platform\Debug\libWebserver_MSS_CM3_0_hw_platform.a(mss_spi.o)
 .debug_info    0x00010a25      0xe0d C:\Users\kylebs\Desktop\FreeRTOS-lwIP-takeDeux\FreeRTOS-lwIP\Webserver_uIPRTOS_SC_DF\EVAL_KIT\SF_Webserver_Demo\SoftConsole\Webserver_MSS_CM3_0\Webserver_MSS_CM3_0_hw_platform\Debug\libWebserver_MSS_CM3_0_hw_platform.a(mss_pdma.o)
 .debug_info    0x00011832     0x1114 C:\Users\kylebs\Desktop\FreeRTOS-lwIP-takeDeux\FreeRTOS-lwIP\Webserver_uIPRTOS_SC_DF\EVAL_KIT\SF_Webserver_Demo\SoftConsole\Webserver_MSS_CM3_0\Webserver_MSS_CM3_0_hw_platform\Debug\libWebserver_MSS_CM3_0_hw_platform.a(mss_gpio.o)
 .debug_info    0x00012946     0x144d C:\Users\kylebs\Desktop\FreeRTOS-lwIP-takeDeux\FreeRTOS-lwIP\Webserver_uIPRTOS_SC_DF\EVAL_KIT\SF_Webserver_Demo\SoftConsole\Webserver_MSS_CM3_0\Webserver_MSS_CM3_0_hw_platform\Debug\libWebserver_MSS_CM3_0_hw_platform.a(mss_ethernet_mac.o)
 .debug_info    0x00013d93      0xcd9 C:\Users\kylebs\Desktop\FreeRTOS-lwIP-takeDeux\FreeRTOS-lwIP\Webserver_uIPRTOS_SC_DF\EVAL_KIT\SF_Webserver_Demo\SoftConsole\Webserver_MSS_CM3_0\Webserver_MSS_CM3_0_hw_platform\Debug\libWebserver_MSS_CM3_0_hw_platform.a(phy.o)
 .debug_info    0x00014a6c      0x547 C:\Users\kylebs\Desktop\FreeRTOS-lwIP-takeDeux\FreeRTOS-lwIP\Webserver_uIPRTOS_SC_DF\EVAL_KIT\SF_Webserver_Demo\SoftConsole\Webserver_MSS_CM3_0\Webserver_MSS_CM3_0_hw_platform\Debug\libWebserver_MSS_CM3_0_hw_platform.a(core_uart_apb.o)
 .debug_info    0x00014fb3      0x54c C:\Users\kylebs\Desktop\FreeRTOS-lwIP-takeDeux\FreeRTOS-lwIP\Webserver_uIPRTOS_SC_DF\EVAL_KIT\SF_Webserver_Demo\SoftConsole\Webserver_MSS_CM3_0\Webserver_MSS_CM3_0_hw_platform\Debug\libWebserver_MSS_CM3_0_hw_platform.a(core_cm3.o)
 .debug_info    0x000154ff      0x53c C:\Users\kylebs\Desktop\FreeRTOS-lwIP-takeDeux\FreeRTOS-lwIP\Webserver_uIPRTOS_SC_DF\EVAL_KIT\SF_Webserver_Demo\SoftConsole\Webserver_MSS_CM3_0\Webserver_MSS_CM3_0_hw_platform\Debug\libWebserver_MSS_CM3_0_hw_platform.a(system_a2fxxxm3.o)
 .debug_info    0x00015a3b      0x12e C:\Users\kylebs\Desktop\FreeRTOS-lwIP-takeDeux\FreeRTOS-lwIP\Webserver_uIPRTOS_SC_DF\EVAL_KIT\SF_Webserver_Demo\SoftConsole\Webserver_MSS_CM3_0\Webserver_MSS_CM3_0_hw_platform\Debug\libWebserver_MSS_CM3_0_hw_platform.a(hal_assert.o)
 .debug_info    0x00015b69      0x14c C:\Users\kylebs\Desktop\FreeRTOS-lwIP-takeDeux\FreeRTOS-lwIP\Webserver_uIPRTOS_SC_DF\EVAL_KIT\SF_Webserver_Demo\SoftConsole\Webserver_MSS_CM3_0\Webserver_MSS_CM3_0_hw_platform\Debug\libWebserver_MSS_CM3_0_hw_platform.a(crc32.o)

.debug_abbrev   0x00000000     0x38d4
 *(.debug_abbrev)
 .debug_abbrev  0x00000000      0x23b ./main.o
 .debug_abbrev  0x0000023b       0x54 ./webclient/webclient-strings.o
 .debug_abbrev  0x0000028f      0x220 ./webclient/webclient.o
 .debug_abbrev  0x000004af      0x1ef ./uip/psock.o
 .debug_abbrev  0x0000069e      0x1af ./uip/uip-fw.o
 .debug_abbrev  0x0000084d      0x10f ./uip/uip-neighbor.o
 .debug_abbrev  0x0000095c       0xca ./uip/uip-split.o
 .debug_abbrev  0x00000a26      0x220 ./uip/uip.o
 .debug_abbrev  0x00000c46      0x195 ./uip/uip_arp.o
 .debug_abbrev  0x00000ddb       0x77 ./uip/uiplib.o
 .debug_abbrev  0x00000e52      0x1bc ./resolv/resolv.o
 .debug_abbrev  0x0000100e      0x216 ./mac/tcpip.o
 .debug_abbrev  0x00001224      0x141 ./jsmn/jsmn.o
 .debug_abbrev  0x00001365      0x1ad ./application_tasks/controller_task.o
 .debug_abbrev  0x00001512      0x1ff ./application_tasks/http_task.o
 .debug_abbrev  0x00001711      0x142 ./application_tasks/lcd_task.o
 .debug_abbrev  0x00001853      0x1a5 ./application_tasks/nunchuck_task.o
 .debug_abbrev  0x000019f8       0xcc ./FreeRTOS/list.o
 .debug_abbrev  0x00001ac4      0x154 ./FreeRTOS/queue.o
 .debug_abbrev  0x00001c18      0x185 ./FreeRTOS/tasks.o
 .debug_abbrev  0x00001d9d      0x146 ./FreeRTOS/timers.o
 .debug_abbrev  0x00001ee3       0xa6 ./FreeRTOS/portable/MemMang/heap_3.o
 .debug_abbrev  0x00001f89      0x13e ./FreeRTOS/portable/GCC/ARM_CM3/port.o
 .debug_abbrev  0x000020c7      0x1f3 ./BSP/spi_flash_driver/spi_flash.o
 .debug_abbrev  0x000022ba      0x20e ./BSP/i2c_driver/i2c.o
 .debug_abbrev  0x000024c8      0x126 ./BSP/emc_driver/nor.o
 .debug_abbrev  0x000025ee      0x1f4 C:/Users/kylebs/Desktop/FreeRTOS-lwIP-takeDeux/FreeRTOS-lwIP/Webserver_uIPRTOS_SC_DF/EVAL_KIT/SF_Webserver_Demo/SoftConsole/Webserver_MSS_CM3_0/Webserver_MSS_CM3_0_hw_platform/Debug/CMSIS/startup_gcc/newlib_stubs.o
 .debug_abbrev  0x000027e2       0xfd C:\Users\kylebs\Desktop\FreeRTOS-lwIP-takeDeux\FreeRTOS-lwIP\Webserver_uIPRTOS_SC_DF\EVAL_KIT\SF_Webserver_Demo\SoftConsole\Webserver_MSS_CM3_0\Webserver_MSS_CM3_0_hw_platform\Debug\libWebserver_MSS_CM3_0_hw_platform.a(plotter_platform.o)
 .debug_abbrev  0x000028df      0x245 C:\Users\kylebs\Desktop\FreeRTOS-lwIP-takeDeux\FreeRTOS-lwIP\Webserver_uIPRTOS_SC_DF\EVAL_KIT\SF_Webserver_Demo\SoftConsole\Webserver_MSS_CM3_0\Webserver_MSS_CM3_0_hw_platform\Debug\libWebserver_MSS_CM3_0_hw_platform.a(mss_uart.o)
 .debug_abbrev  0x00002b24      0x228 C:\Users\kylebs\Desktop\FreeRTOS-lwIP-takeDeux\FreeRTOS-lwIP\Webserver_uIPRTOS_SC_DF\EVAL_KIT\SF_Webserver_Demo\SoftConsole\Webserver_MSS_CM3_0\Webserver_MSS_CM3_0_hw_platform\Debug\libWebserver_MSS_CM3_0_hw_platform.a(mss_spi.o)
 .debug_abbrev  0x00002d4c      0x1ea C:\Users\kylebs\Desktop\FreeRTOS-lwIP-takeDeux\FreeRTOS-lwIP\Webserver_uIPRTOS_SC_DF\EVAL_KIT\SF_Webserver_Demo\SoftConsole\Webserver_MSS_CM3_0\Webserver_MSS_CM3_0_hw_platform\Debug\libWebserver_MSS_CM3_0_hw_platform.a(mss_pdma.o)
 .debug_abbrev  0x00002f36      0x181 C:\Users\kylebs\Desktop\FreeRTOS-lwIP-takeDeux\FreeRTOS-lwIP\Webserver_uIPRTOS_SC_DF\EVAL_KIT\SF_Webserver_Demo\SoftConsole\Webserver_MSS_CM3_0\Webserver_MSS_CM3_0_hw_platform\Debug\libWebserver_MSS_CM3_0_hw_platform.a(mss_gpio.o)
 .debug_abbrev  0x000030b7      0x213 C:\Users\kylebs\Desktop\FreeRTOS-lwIP-takeDeux\FreeRTOS-lwIP\Webserver_uIPRTOS_SC_DF\EVAL_KIT\SF_Webserver_Demo\SoftConsole\Webserver_MSS_CM3_0\Webserver_MSS_CM3_0_hw_platform\Debug\libWebserver_MSS_CM3_0_hw_platform.a(mss_ethernet_mac.o)
 .debug_abbrev  0x000032ca      0x1c4 C:\Users\kylebs\Desktop\FreeRTOS-lwIP-takeDeux\FreeRTOS-lwIP\Webserver_uIPRTOS_SC_DF\EVAL_KIT\SF_Webserver_Demo\SoftConsole\Webserver_MSS_CM3_0\Webserver_MSS_CM3_0_hw_platform\Debug\libWebserver_MSS_CM3_0_hw_platform.a(phy.o)
 .debug_abbrev  0x0000348e      0x120 C:\Users\kylebs\Desktop\FreeRTOS-lwIP-takeDeux\FreeRTOS-lwIP\Webserver_uIPRTOS_SC_DF\EVAL_KIT\SF_Webserver_Demo\SoftConsole\Webserver_MSS_CM3_0\Webserver_MSS_CM3_0_hw_platform\Debug\libWebserver_MSS_CM3_0_hw_platform.a(core_uart_apb.o)
 .debug_abbrev  0x000035ae       0xd9 C:\Users\kylebs\Desktop\FreeRTOS-lwIP-takeDeux\FreeRTOS-lwIP\Webserver_uIPRTOS_SC_DF\EVAL_KIT\SF_Webserver_Demo\SoftConsole\Webserver_MSS_CM3_0\Webserver_MSS_CM3_0_hw_platform\Debug\libWebserver_MSS_CM3_0_hw_platform.a(core_cm3.o)
 .debug_abbrev  0x00003687      0x111 C:\Users\kylebs\Desktop\FreeRTOS-lwIP-takeDeux\FreeRTOS-lwIP\Webserver_uIPRTOS_SC_DF\EVAL_KIT\SF_Webserver_Demo\SoftConsole\Webserver_MSS_CM3_0\Webserver_MSS_CM3_0_hw_platform\Debug\libWebserver_MSS_CM3_0_hw_platform.a(system_a2fxxxm3.o)
 .debug_abbrev  0x00003798       0x90 C:\Users\kylebs\Desktop\FreeRTOS-lwIP-takeDeux\FreeRTOS-lwIP\Webserver_uIPRTOS_SC_DF\EVAL_KIT\SF_Webserver_Demo\SoftConsole\Webserver_MSS_CM3_0\Webserver_MSS_CM3_0_hw_platform\Debug\libWebserver_MSS_CM3_0_hw_platform.a(hal_assert.o)
 .debug_abbrev  0x00003828       0xac C:\Users\kylebs\Desktop\FreeRTOS-lwIP-takeDeux\FreeRTOS-lwIP\Webserver_uIPRTOS_SC_DF\EVAL_KIT\SF_Webserver_Demo\SoftConsole\Webserver_MSS_CM3_0\Webserver_MSS_CM3_0_hw_platform\Debug\libWebserver_MSS_CM3_0_hw_platform.a(crc32.o)

.debug_line     0x00000000    0x103b3
 *(.debug_line)
 .debug_line    0x00000000     0x1016 ./main.o
 .debug_line    0x00001016       0x41 ./webclient/webclient-strings.o
 .debug_line    0x00001057      0x75b ./webclient/webclient.o
 .debug_line    0x000017b2      0x6cf ./uip/psock.o
 .debug_line    0x00001e81      0x659 ./uip/uip-fw.o
 .debug_line    0x000024da      0x5c4 ./uip/uip-neighbor.o
 .debug_line    0x00002a9e      0x56c ./uip/uip-split.o
 .debug_line    0x0000300a      0x9ee ./uip/uip.o
 .debug_line    0x000039f8      0x5ef ./uip/uip_arp.o
 .debug_line    0x00003fe7      0x3c4 ./uip/uiplib.o
 .debug_line    0x000043ab      0x675 ./resolv/resolv.o
 .debug_line    0x00004a20      0x8cc ./mac/tcpip.o
 .debug_line    0x000052ec      0x385 ./jsmn/jsmn.o
 .debug_line    0x00005671      0xf0f ./application_tasks/controller_task.o
 .debug_line    0x00006580     0x1364 ./application_tasks/http_task.o
 .debug_line    0x000078e4      0xc5c ./application_tasks/lcd_task.o
 .debug_line    0x00008540      0xe1e ./application_tasks/nunchuck_task.o
 .debug_line    0x0000935e      0x5b1 ./FreeRTOS/list.o
 .debug_line    0x0000990f      0x7f6 ./FreeRTOS/queue.o
 .debug_line    0x0000a105      0xa48 ./FreeRTOS/tasks.o
 .debug_line    0x0000ab4d      0x564 ./FreeRTOS/timers.o
 .debug_line    0x0000b0b1      0x582 ./FreeRTOS/portable/MemMang/heap_3.o
 .debug_line    0x0000b633      0x4ad ./FreeRTOS/portable/GCC/ARM_CM3/port.o
 .debug_line    0x0000bae0      0x8d0 ./BSP/spi_flash_driver/spi_flash.o
 .debug_line    0x0000c3b0      0x556 ./BSP/i2c_driver/i2c.o
 .debug_line    0x0000c906      0x338 ./BSP/emc_driver/nor.o
 .debug_line    0x0000cc3e      0xa21 C:/Users/kylebs/Desktop/FreeRTOS-lwIP-takeDeux/FreeRTOS-lwIP/Webserver_uIPRTOS_SC_DF/EVAL_KIT/SF_Webserver_Demo/SoftConsole/Webserver_MSS_CM3_0/Webserver_MSS_CM3_0_hw_platform/Debug/CMSIS/startup_gcc/newlib_stubs.o
 .debug_line    0x0000d65f      0x632 C:\Users\kylebs\Desktop\FreeRTOS-lwIP-takeDeux\FreeRTOS-lwIP\Webserver_uIPRTOS_SC_DF\EVAL_KIT\SF_Webserver_Demo\SoftConsole\Webserver_MSS_CM3_0\Webserver_MSS_CM3_0_hw_platform\Debug\libWebserver_MSS_CM3_0_hw_platform.a(plotter_platform.o)
 .debug_line    0x0000dc91      0x581 C:\Users\kylebs\Desktop\FreeRTOS-lwIP-takeDeux\FreeRTOS-lwIP\Webserver_uIPRTOS_SC_DF\EVAL_KIT\SF_Webserver_Demo\SoftConsole\Webserver_MSS_CM3_0\Webserver_MSS_CM3_0_hw_platform\Debug\libWebserver_MSS_CM3_0_hw_platform.a(mss_uart.o)
 .debug_line    0x0000e212      0x528 C:\Users\kylebs\Desktop\FreeRTOS-lwIP-takeDeux\FreeRTOS-lwIP\Webserver_uIPRTOS_SC_DF\EVAL_KIT\SF_Webserver_Demo\SoftConsole\Webserver_MSS_CM3_0\Webserver_MSS_CM3_0_hw_platform\Debug\libWebserver_MSS_CM3_0_hw_platform.a(mss_spi.o)
 .debug_line    0x0000e73a      0x39c C:\Users\kylebs\Desktop\FreeRTOS-lwIP-takeDeux\FreeRTOS-lwIP\Webserver_uIPRTOS_SC_DF\EVAL_KIT\SF_Webserver_Demo\SoftConsole\Webserver_MSS_CM3_0\Webserver_MSS_CM3_0_hw_platform\Debug\libWebserver_MSS_CM3_0_hw_platform.a(mss_pdma.o)
 .debug_line    0x0000ead6      0x32f C:\Users\kylebs\Desktop\FreeRTOS-lwIP-takeDeux\FreeRTOS-lwIP\Webserver_uIPRTOS_SC_DF\EVAL_KIT\SF_Webserver_Demo\SoftConsole\Webserver_MSS_CM3_0\Webserver_MSS_CM3_0_hw_platform\Debug\libWebserver_MSS_CM3_0_hw_platform.a(mss_gpio.o)
 .debug_line    0x0000ee05      0x735 C:\Users\kylebs\Desktop\FreeRTOS-lwIP-takeDeux\FreeRTOS-lwIP\Webserver_uIPRTOS_SC_DF\EVAL_KIT\SF_Webserver_Demo\SoftConsole\Webserver_MSS_CM3_0\Webserver_MSS_CM3_0_hw_platform\Debug\libWebserver_MSS_CM3_0_hw_platform.a(mss_ethernet_mac.o)
 .debug_line    0x0000f53a      0x290 C:\Users\kylebs\Desktop\FreeRTOS-lwIP-takeDeux\FreeRTOS-lwIP\Webserver_uIPRTOS_SC_DF\EVAL_KIT\SF_Webserver_Demo\SoftConsole\Webserver_MSS_CM3_0\Webserver_MSS_CM3_0_hw_platform\Debug\libWebserver_MSS_CM3_0_hw_platform.a(phy.o)
 .debug_line    0x0000f7ca      0x386 C:\Users\kylebs\Desktop\FreeRTOS-lwIP-takeDeux\FreeRTOS-lwIP\Webserver_uIPRTOS_SC_DF\EVAL_KIT\SF_Webserver_Demo\SoftConsole\Webserver_MSS_CM3_0\Webserver_MSS_CM3_0_hw_platform\Debug\libWebserver_MSS_CM3_0_hw_platform.a(core_uart_apb.o)
 .debug_line    0x0000fb50      0x263 C:\Users\kylebs\Desktop\FreeRTOS-lwIP-takeDeux\FreeRTOS-lwIP\Webserver_uIPRTOS_SC_DF\EVAL_KIT\SF_Webserver_Demo\SoftConsole\Webserver_MSS_CM3_0\Webserver_MSS_CM3_0_hw_platform\Debug\libWebserver_MSS_CM3_0_hw_platform.a(core_cm3.o)
 .debug_line    0x0000fdb3      0x284 C:\Users\kylebs\Desktop\FreeRTOS-lwIP-takeDeux\FreeRTOS-lwIP\Webserver_uIPRTOS_SC_DF\EVAL_KIT\SF_Webserver_Demo\SoftConsole\Webserver_MSS_CM3_0\Webserver_MSS_CM3_0_hw_platform\Debug\libWebserver_MSS_CM3_0_hw_platform.a(system_a2fxxxm3.o)
 .debug_line    0x00010037      0x286 C:\Users\kylebs\Desktop\FreeRTOS-lwIP-takeDeux\FreeRTOS-lwIP\Webserver_uIPRTOS_SC_DF\EVAL_KIT\SF_Webserver_Demo\SoftConsole\Webserver_MSS_CM3_0\Webserver_MSS_CM3_0_hw_platform\Debug\libWebserver_MSS_CM3_0_hw_platform.a(hal_assert.o)
 .debug_line    0x000102bd       0xf6 C:\Users\kylebs\Desktop\FreeRTOS-lwIP-takeDeux\FreeRTOS-lwIP\Webserver_uIPRTOS_SC_DF\EVAL_KIT\SF_Webserver_Demo\SoftConsole\Webserver_MSS_CM3_0\Webserver_MSS_CM3_0_hw_platform\Debug\libWebserver_MSS_CM3_0_hw_platform.a(crc32.o)

.debug_frame    0x00000000     0x472c
 *(.debug_frame)
 .debug_frame   0x00000000      0x164 ./main.o
 .debug_frame   0x00000164      0x1f4 ./webclient/webclient.o
 .debug_frame   0x00000358      0x180 ./uip/psock.o
 .debug_frame   0x000004d8      0x138 ./uip/uip-fw.o
 .debug_frame   0x00000610       0xc4 ./uip/uip-neighbor.o
 .debug_frame   0x000006d4       0x30 ./uip/uip-split.o
 .debug_frame   0x00000704      0x20c ./uip/uip.o
 .debug_frame   0x00000910       0xa8 ./uip/uip_arp.o
 .debug_frame   0x000009b8       0x2c ./uip/uiplib.o
 .debug_frame   0x000009e4      0x118 ./resolv/resolv.o
 .debug_frame   0x00000afc      0x25c ./mac/tcpip.o
 .debug_frame   0x00000d58       0xc4 ./jsmn/jsmn.o
 .debug_frame   0x00000e1c       0xa4 ./application_tasks/controller_task.o
 .debug_frame   0x00000ec0      0x1c0 ./application_tasks/http_task.o
 .debug_frame   0x00001080       0x8c ./application_tasks/lcd_task.o
 .debug_frame   0x0000110c       0x50 ./application_tasks/nunchuck_task.o
 .debug_frame   0x0000115c       0x9c ./FreeRTOS/list.o
 .debug_frame   0x000011f8      0x284 ./FreeRTOS/queue.o
 .debug_frame   0x0000147c      0x4c0 ./FreeRTOS/tasks.o
 .debug_frame   0x0000193c      0x1c4 ./FreeRTOS/timers.o
 .debug_frame   0x00001b00       0x50 ./FreeRTOS/portable/MemMang/heap_3.o
 .debug_frame   0x00001b50      0x110 ./FreeRTOS/portable/GCC/ARM_CM3/port.o
 .debug_frame   0x00001c60       0xd0 ./BSP/spi_flash_driver/spi_flash.o
 .debug_frame   0x00001d30      0x25c ./BSP/i2c_driver/i2c.o
 .debug_frame   0x00001f8c       0xe0 ./BSP/emc_driver/nor.o
 .debug_frame   0x0000206c      0x220 C:/Users/kylebs/Desktop/FreeRTOS-lwIP-takeDeux/FreeRTOS-lwIP/Webserver_uIPRTOS_SC_DF/EVAL_KIT/SF_Webserver_Demo/SoftConsole/Webserver_MSS_CM3_0/Webserver_MSS_CM3_0_hw_platform/Debug/CMSIS/startup_gcc/newlib_stubs.o
 .debug_frame   0x0000228c       0x34 C:\Users\kylebs\Desktop\FreeRTOS-lwIP-takeDeux\FreeRTOS-lwIP\Webserver_uIPRTOS_SC_DF\EVAL_KIT\SF_Webserver_Demo\SoftConsole\Webserver_MSS_CM3_0\Webserver_MSS_CM3_0_hw_platform\Debug\libWebserver_MSS_CM3_0_hw_platform.a(plotter_platform.o)
 .debug_frame   0x000022c0      0x2e4 C:\Users\kylebs\Desktop\FreeRTOS-lwIP-takeDeux\FreeRTOS-lwIP\Webserver_uIPRTOS_SC_DF\EVAL_KIT\SF_Webserver_Demo\SoftConsole\Webserver_MSS_CM3_0\Webserver_MSS_CM3_0_hw_platform\Debug\libWebserver_MSS_CM3_0_hw_platform.a(mss_uart.o)
 .debug_frame   0x000025a4      0x2ec C:\Users\kylebs\Desktop\FreeRTOS-lwIP-takeDeux\FreeRTOS-lwIP\Webserver_uIPRTOS_SC_DF\EVAL_KIT\SF_Webserver_Demo\SoftConsole\Webserver_MSS_CM3_0\Webserver_MSS_CM3_0_hw_platform\Debug\libWebserver_MSS_CM3_0_hw_platform.a(mss_spi.o)
 .debug_frame   0x00002890      0x178 C:\Users\kylebs\Desktop\FreeRTOS-lwIP-takeDeux\FreeRTOS-lwIP\Webserver_uIPRTOS_SC_DF\EVAL_KIT\SF_Webserver_Demo\SoftConsole\Webserver_MSS_CM3_0\Webserver_MSS_CM3_0_hw_platform\Debug\libWebserver_MSS_CM3_0_hw_platform.a(mss_pdma.o)
 .debug_frame   0x00002a08      0x118 C:\Users\kylebs\Desktop\FreeRTOS-lwIP-takeDeux\FreeRTOS-lwIP\Webserver_uIPRTOS_SC_DF\EVAL_KIT\SF_Webserver_Demo\SoftConsole\Webserver_MSS_CM3_0\Webserver_MSS_CM3_0_hw_platform\Debug\libWebserver_MSS_CM3_0_hw_platform.a(mss_gpio.o)
 .debug_frame   0x00002b20      0x390 C:\Users\kylebs\Desktop\FreeRTOS-lwIP-takeDeux\FreeRTOS-lwIP\Webserver_uIPRTOS_SC_DF\EVAL_KIT\SF_Webserver_Demo\SoftConsole\Webserver_MSS_CM3_0\Webserver_MSS_CM3_0_hw_platform\Debug\libWebserver_MSS_CM3_0_hw_platform.a(mss_ethernet_mac.o)
 .debug_frame   0x00002eb0      0x168 C:\Users\kylebs\Desktop\FreeRTOS-lwIP-takeDeux\FreeRTOS-lwIP\Webserver_uIPRTOS_SC_DF\EVAL_KIT\SF_Webserver_Demo\SoftConsole\Webserver_MSS_CM3_0\Webserver_MSS_CM3_0_hw_platform\Debug\libWebserver_MSS_CM3_0_hw_platform.a(phy.o)
 .debug_frame   0x00003018       0xd0 C:\Users\kylebs\Desktop\FreeRTOS-lwIP-takeDeux\FreeRTOS-lwIP\Webserver_uIPRTOS_SC_DF\EVAL_KIT\SF_Webserver_Demo\SoftConsole\Webserver_MSS_CM3_0\Webserver_MSS_CM3_0_hw_platform\Debug\libWebserver_MSS_CM3_0_hw_platform.a(core_uart_apb.o)
 .debug_frame   0x000030e8      0x248 C:\Users\kylebs\Desktop\FreeRTOS-lwIP-takeDeux\FreeRTOS-lwIP\Webserver_uIPRTOS_SC_DF\EVAL_KIT\SF_Webserver_Demo\SoftConsole\Webserver_MSS_CM3_0\Webserver_MSS_CM3_0_hw_platform\Debug\libWebserver_MSS_CM3_0_hw_platform.a(core_cm3.o)
 .debug_frame   0x00003330       0x64 C:\Users\kylebs\Desktop\FreeRTOS-lwIP-takeDeux\FreeRTOS-lwIP\Webserver_uIPRTOS_SC_DF\EVAL_KIT\SF_Webserver_Demo\SoftConsole\Webserver_MSS_CM3_0\Webserver_MSS_CM3_0_hw_platform\Debug\libWebserver_MSS_CM3_0_hw_platform.a(system_a2fxxxm3.o)
 .debug_frame   0x00003394       0x2c C:\Users\kylebs\Desktop\FreeRTOS-lwIP-takeDeux\FreeRTOS-lwIP\Webserver_uIPRTOS_SC_DF\EVAL_KIT\SF_Webserver_Demo\SoftConsole\Webserver_MSS_CM3_0\Webserver_MSS_CM3_0_hw_platform\Debug\libWebserver_MSS_CM3_0_hw_platform.a(hal_assert.o)
 .debug_frame   0x000033c0       0x4c C:\Users\kylebs\Desktop\FreeRTOS-lwIP-takeDeux\FreeRTOS-lwIP\Webserver_uIPRTOS_SC_DF\EVAL_KIT\SF_Webserver_Demo\SoftConsole\Webserver_MSS_CM3_0\Webserver_MSS_CM3_0_hw_platform\Debug\libWebserver_MSS_CM3_0_hw_platform.a(crc32.o)
 .debug_frame   0x0000340c       0x20 c:/actel/libero_v9.1/softconsole/sourcery-g++/bin/../lib/gcc/arm-none-eabi/4.4.1/../../../../arm-none-eabi/lib/thumb2\libc.a(lib_a-errno.o)
 .debug_frame   0x0000342c       0x2c c:/actel/libero_v9.1/softconsole/sourcery-g++/bin/../lib/gcc/arm-none-eabi/4.4.1/../../../../arm-none-eabi/lib/thumb2\libc.a(lib_a-init.o)
 .debug_frame   0x00003458       0x30 c:/actel/libero_v9.1/softconsole/sourcery-g++/bin/../lib/gcc/arm-none-eabi/4.4.1/../../../../arm-none-eabi/lib/thumb2\libc.a(lib_a-malloc.o)
 .debug_frame   0x00003488       0x3c c:/actel/libero_v9.1/softconsole/sourcery-g++/bin/../lib/gcc/arm-none-eabi/4.4.1/../../../../arm-none-eabi/lib/thumb2\libc.a(lib_a-mallocr.o)
 .debug_frame   0x000034c4       0x28 c:/actel/libero_v9.1/softconsole/sourcery-g++/bin/../lib/gcc/arm-none-eabi/4.4.1/../../../../arm-none-eabi/lib/thumb2\libc.a(lib_a-memcmp.o)
 .debug_frame   0x000034ec       0x34 c:/actel/libero_v9.1/softconsole/sourcery-g++/bin/../lib/gcc/arm-none-eabi/4.4.1/../../../../arm-none-eabi/lib/thumb2\libc.a(lib_a-memcpy.o)
 .debug_frame   0x00003520       0x28 c:/actel/libero_v9.1/softconsole/sourcery-g++/bin/../lib/gcc/arm-none-eabi/4.4.1/../../../../arm-none-eabi/lib/thumb2\libc.a(lib_a-memset.o)
 .debug_frame   0x00003548       0x30 c:/actel/libero_v9.1/softconsole/sourcery-g++/bin/../lib/gcc/arm-none-eabi/4.4.1/../../../../arm-none-eabi/lib/thumb2\libc.a(lib_a-mlock.o)
 .debug_frame   0x00003578       0x5c c:/actel/libero_v9.1/softconsole/sourcery-g++/bin/../lib/gcc/arm-none-eabi/4.4.1/../../../../arm-none-eabi/lib/thumb2\libc.a(lib_a-printf.o)
 .debug_frame   0x000035d4       0x48 c:/actel/libero_v9.1/softconsole/sourcery-g++/bin/../lib/gcc/arm-none-eabi/4.4.1/../../../../arm-none-eabi/lib/thumb2\libc.a(lib_a-putchar.o)
 .debug_frame   0x0000361c       0x40 c:/actel/libero_v9.1/softconsole/sourcery-g++/bin/../lib/gcc/arm-none-eabi/4.4.1/../../../../arm-none-eabi/lib/thumb2\libc.a(lib_a-puts.o)
 .debug_frame   0x0000365c       0x2c c:/actel/libero_v9.1/softconsole/sourcery-g++/bin/../lib/gcc/arm-none-eabi/4.4.1/../../../../arm-none-eabi/lib/thumb2\libc.a(lib_a-sbrkr.o)
 .debug_frame   0x00003688       0x5c c:/actel/libero_v9.1/softconsole/sourcery-g++/bin/../lib/gcc/arm-none-eabi/4.4.1/../../../../arm-none-eabi/lib/thumb2\libc.a(lib_a-sprintf.o)
 .debug_frame   0x000036e4       0x78 c:/actel/libero_v9.1/softconsole/sourcery-g++/bin/../lib/gcc/arm-none-eabi/4.4.1/../../../../arm-none-eabi/lib/thumb2\libc.a(lib_a-sscanf.o)
 .debug_frame   0x0000375c       0x28 c:/actel/libero_v9.1/softconsole/sourcery-g++/bin/../lib/gcc/arm-none-eabi/4.4.1/../../../../arm-none-eabi/lib/thumb2\libc.a(lib_a-strcat.o)
 .debug_frame   0x00003784       0x28 c:/actel/libero_v9.1/softconsole/sourcery-g++/bin/../lib/gcc/arm-none-eabi/4.4.1/../../../../arm-none-eabi/lib/thumb2\libc.a(lib_a-strchr.o)
 .debug_frame   0x000037ac       0x30 c:/actel/libero_v9.1/softconsole/sourcery-g++/bin/../lib/gcc/arm-none-eabi/4.4.1/../../../../arm-none-eabi/lib/thumb2\libc.a(lib_a-strcmp.o)
 .debug_frame   0x000037dc       0x20 c:/actel/libero_v9.1/softconsole/sourcery-g++/bin/../lib/gcc/arm-none-eabi/4.4.1/../../../../arm-none-eabi/lib/thumb2\libc.a(lib_a-strcpy.o)
 .debug_frame   0x000037fc       0x20 c:/actel/libero_v9.1/softconsole/sourcery-g++/bin/../lib/gcc/arm-none-eabi/4.4.1/../../../../arm-none-eabi/lib/thumb2\libc.a(lib_a-strlen.o)
 .debug_frame   0x0000381c       0x28 c:/actel/libero_v9.1/softconsole/sourcery-g++/bin/../lib/gcc/arm-none-eabi/4.4.1/../../../../arm-none-eabi/lib/thumb2\libc.a(lib_a-strncmp.o)
 .debug_frame   0x00003844       0x28 c:/actel/libero_v9.1/softconsole/sourcery-g++/bin/../lib/gcc/arm-none-eabi/4.4.1/../../../../arm-none-eabi/lib/thumb2\libc.a(lib_a-strncpy.o)
 .debug_frame   0x0000386c       0x68 c:/actel/libero_v9.1/softconsole/sourcery-g++/bin/../lib/gcc/arm-none-eabi/4.4.1/../../../../arm-none-eabi/lib/thumb2\libc.a(lib_a-svfprintf.o)
 .debug_frame   0x000038d4       0x74 c:/actel/libero_v9.1/softconsole/sourcery-g++/bin/../lib/gcc/arm-none-eabi/4.4.1/../../../../arm-none-eabi/lib/thumb2\libc.a(lib_a-svfscanf.o)
 .debug_frame   0x00003948       0x60 c:/actel/libero_v9.1/softconsole/sourcery-g++/bin/../lib/gcc/arm-none-eabi/4.4.1/../../../../arm-none-eabi/lib/thumb2\libc.a(lib_a-ungetc.o)
 .debug_frame   0x000039a8       0x70 c:/actel/libero_v9.1/softconsole/sourcery-g++/bin/../lib/gcc/arm-none-eabi/4.4.1/../../../../arm-none-eabi/lib/thumb2\libc.a(lib_a-vfprintf.o)
 .debug_frame   0x00003a18       0x2c c:/actel/libero_v9.1/softconsole/sourcery-g++/bin/../lib/gcc/arm-none-eabi/4.4.1/../../../../arm-none-eabi/lib/thumb2\libc.a(lib_a-wsetup.o)
 .debug_frame   0x00003a44       0x64 c:/actel/libero_v9.1/softconsole/sourcery-g++/bin/../lib/gcc/arm-none-eabi/4.4.1/../../../../arm-none-eabi/lib/thumb2\libc.a(lib_a-dtoa.o)
 .debug_frame   0x00003aa8       0x40 c:/actel/libero_v9.1/softconsole/sourcery-g++/bin/../lib/gcc/arm-none-eabi/4.4.1/../../../../arm-none-eabi/lib/thumb2\libc.a(lib_a-fflush.o)
 .debug_frame   0x00003ae8      0x11c c:/actel/libero_v9.1/softconsole/sourcery-g++/bin/../lib/gcc/arm-none-eabi/4.4.1/../../../../arm-none-eabi/lib/thumb2\libc.a(lib_a-findfp.o)
 .debug_frame   0x00003c04       0x50 c:/actel/libero_v9.1/softconsole/sourcery-g++/bin/../lib/gcc/arm-none-eabi/4.4.1/../../../../arm-none-eabi/lib/thumb2\libc.a(lib_a-freer.o)
 .debug_frame   0x00003c54       0x3c c:/actel/libero_v9.1/softconsole/sourcery-g++/bin/../lib/gcc/arm-none-eabi/4.4.1/../../../../arm-none-eabi/lib/thumb2\libc.a(lib_a-fvwrite.o)
 .debug_frame   0x00003c90       0x54 c:/actel/libero_v9.1/softconsole/sourcery-g++/bin/../lib/gcc/arm-none-eabi/4.4.1/../../../../arm-none-eabi/lib/thumb2\libc.a(lib_a-fwalk.o)
 .debug_frame   0x00003ce4       0x20 c:/actel/libero_v9.1/softconsole/sourcery-g++/bin/../lib/gcc/arm-none-eabi/4.4.1/../../../../arm-none-eabi/lib/thumb2\libc.a(lib_a-iswspace.o)
 .debug_frame   0x00003d04       0x6c c:/actel/libero_v9.1/softconsole/sourcery-g++/bin/../lib/gcc/arm-none-eabi/4.4.1/../../../../arm-none-eabi/lib/thumb2\libc.a(lib_a-locale.o)
 .debug_frame   0x00003d70       0x34 c:/actel/libero_v9.1/softconsole/sourcery-g++/bin/../lib/gcc/arm-none-eabi/4.4.1/../../../../arm-none-eabi/lib/thumb2\libc.a(lib_a-makebuf.o)
 .debug_frame   0x00003da4       0x50 c:/actel/libero_v9.1/softconsole/sourcery-g++/bin/../lib/gcc/arm-none-eabi/4.4.1/../../../../arm-none-eabi/lib/thumb2\libc.a(lib_a-mbrtowc.o)
 .debug_frame   0x00003df4       0x24 c:/actel/libero_v9.1/softconsole/sourcery-g++/bin/../lib/gcc/arm-none-eabi/4.4.1/../../../../arm-none-eabi/lib/thumb2\libc.a(lib_a-mbtowc_r.o)
 .debug_frame   0x00003e18       0x28 c:/actel/libero_v9.1/softconsole/sourcery-g++/bin/../lib/gcc/arm-none-eabi/4.4.1/../../../../arm-none-eabi/lib/thumb2\libc.a(lib_a-memchr.o)
 .debug_frame   0x00003e40       0x2c c:/actel/libero_v9.1/softconsole/sourcery-g++/bin/../lib/gcc/arm-none-eabi/4.4.1/../../../../arm-none-eabi/lib/thumb2\libc.a(lib_a-memmove.o)
 .debug_frame   0x00003e6c      0x240 c:/actel/libero_v9.1/softconsole/sourcery-g++/bin/../lib/gcc/arm-none-eabi/4.4.1/../../../../arm-none-eabi/lib/thumb2\libc.a(lib_a-mprec.o)
 .debug_frame   0x000040ac       0x48 c:/actel/libero_v9.1/softconsole/sourcery-g++/bin/../lib/gcc/arm-none-eabi/4.4.1/../../../../arm-none-eabi/lib/thumb2\libc.a(lib_a-putc.o)
 .debug_frame   0x000040f4       0x3c c:/actel/libero_v9.1/softconsole/sourcery-g++/bin/../lib/gcc/arm-none-eabi/4.4.1/../../../../arm-none-eabi/lib/thumb2\libc.a(lib_a-reallocr.o)
 .debug_frame   0x00004130       0x64 c:/actel/libero_v9.1/softconsole/sourcery-g++/bin/../lib/gcc/arm-none-eabi/4.4.1/../../../../arm-none-eabi/lib/thumb2\libc.a(lib_a-reent.o)
 .debug_frame   0x00004194       0x20 c:/actel/libero_v9.1/softconsole/sourcery-g++/bin/../lib/gcc/arm-none-eabi/4.4.1/../../../../arm-none-eabi/lib/thumb2\libc.a(lib_a-s_isinfd.o)
 .debug_frame   0x000041b4       0x20 c:/actel/libero_v9.1/softconsole/sourcery-g++/bin/../lib/gcc/arm-none-eabi/4.4.1/../../../../arm-none-eabi/lib/thumb2\libc.a(lib_a-s_isnand.o)
 .debug_frame   0x000041d4       0x2c c:/actel/libero_v9.1/softconsole/sourcery-g++/bin/../lib/gcc/arm-none-eabi/4.4.1/../../../../arm-none-eabi/lib/thumb2\libc.a(lib_a-sccl.o)
 .debug_frame   0x00004200       0x20 c:/actel/libero_v9.1/softconsole/sourcery-g++/bin/../lib/gcc/arm-none-eabi/4.4.1/../../../../arm-none-eabi/lib/thumb2\libc.a(lib_a-sf_nan.o)
 .debug_frame   0x00004220       0x70 c:/actel/libero_v9.1/softconsole/sourcery-g++/bin/../lib/gcc/arm-none-eabi/4.4.1/../../../../arm-none-eabi/lib/thumb2\libc.a(lib_a-stdio.o)
 .debug_frame   0x00004290       0x6c c:/actel/libero_v9.1/softconsole/sourcery-g++/bin/../lib/gcc/arm-none-eabi/4.4.1/../../../../arm-none-eabi/lib/thumb2\libc.a(lib_a-strtod.o)
 .debug_frame   0x000042fc       0x54 c:/actel/libero_v9.1/softconsole/sourcery-g++/bin/../lib/gcc/arm-none-eabi/4.4.1/../../../../arm-none-eabi/lib/thumb2\libc.a(lib_a-strtol.o)
 .debug_frame   0x00004350       0x3c c:/actel/libero_v9.1/softconsole/sourcery-g++/bin/../lib/gcc/arm-none-eabi/4.4.1/../../../../arm-none-eabi/lib/thumb2\libc.a(lib_a-strtoll_r.o)
 .debug_frame   0x0000438c       0x54 c:/actel/libero_v9.1/softconsole/sourcery-g++/bin/../lib/gcc/arm-none-eabi/4.4.1/../../../../arm-none-eabi/lib/thumb2\libc.a(lib_a-strtoul.o)
 .debug_frame   0x000043e0       0x3c c:/actel/libero_v9.1/softconsole/sourcery-g++/bin/../lib/gcc/arm-none-eabi/4.4.1/../../../../arm-none-eabi/lib/thumb2\libc.a(lib_a-strtoull_r.o)
 .debug_frame   0x0000441c       0x3c c:/actel/libero_v9.1/softconsole/sourcery-g++/bin/../lib/gcc/arm-none-eabi/4.4.1/../../../../arm-none-eabi/lib/thumb2\libc.a(lib_a-wbuf.o)
 .debug_frame   0x00004458       0x2c c:/actel/libero_v9.1/softconsole/sourcery-g++/bin/../lib/gcc/arm-none-eabi/4.4.1/../../../../arm-none-eabi/lib/thumb2\libc.a(lib_a-callocr.o)
 .debug_frame   0x00004484       0x2c c:/actel/libero_v9.1/softconsole/sourcery-g++/bin/../lib/gcc/arm-none-eabi/4.4.1/../../../../arm-none-eabi/lib/thumb2\libc.a(lib_a-closer.o)
 .debug_frame   0x000044b0       0x3c c:/actel/libero_v9.1/softconsole/sourcery-g++/bin/../lib/gcc/arm-none-eabi/4.4.1/../../../../arm-none-eabi/lib/thumb2\libc.a(lib_a-fclose.o)
 .debug_frame   0x000044ec       0x2c c:/actel/libero_v9.1/softconsole/sourcery-g++/bin/../lib/gcc/arm-none-eabi/4.4.1/../../../../arm-none-eabi/lib/thumb2\libc.a(lib_a-fstatr.o)
 .debug_frame   0x00004518       0x6c c:/actel/libero_v9.1/softconsole/sourcery-g++/bin/../lib/gcc/arm-none-eabi/4.4.1/../../../../arm-none-eabi/lib/thumb2\libc.a(lib_a-gdtoa-gethex.o)
 .debug_frame   0x00004584       0x3c c:/actel/libero_v9.1/softconsole/sourcery-g++/bin/../lib/gcc/arm-none-eabi/4.4.1/../../../../arm-none-eabi/lib/thumb2\libc.a(lib_a-gdtoa-hexnan.o)
 .debug_frame   0x000045c0       0x2c c:/actel/libero_v9.1/softconsole/sourcery-g++/bin/../lib/gcc/arm-none-eabi/4.4.1/../../../../arm-none-eabi/lib/thumb2\libc.a(lib_a-isattyr.o)
 .debug_frame   0x000045ec       0x2c c:/actel/libero_v9.1/softconsole/sourcery-g++/bin/../lib/gcc/arm-none-eabi/4.4.1/../../../../arm-none-eabi/lib/thumb2\libc.a(lib_a-lseekr.o)
 .debug_frame   0x00004618       0x2c c:/actel/libero_v9.1/softconsole/sourcery-g++/bin/../lib/gcc/arm-none-eabi/4.4.1/../../../../arm-none-eabi/lib/thumb2\libc.a(lib_a-readr.o)
 .debug_frame   0x00004644       0x20 c:/actel/libero_v9.1/softconsole/sourcery-g++/bin/../lib/gcc/arm-none-eabi/4.4.1/thumb2\libgcc.a(_udivsi3.o)
 .debug_frame   0x00004664       0x50 c:/actel/libero_v9.1/softconsole/sourcery-g++/bin/../lib/gcc/arm-none-eabi/4.4.1/thumb2\libgcc.a(bpabi.o)
 .debug_frame   0x000046b4       0x3c c:/actel/libero_v9.1/softconsole/sourcery-g++/bin/../lib/gcc/arm-none-eabi/4.4.1/thumb2\libgcc.a(_divdi3.o)
 .debug_frame   0x000046f0       0x3c c:/actel/libero_v9.1/softconsole/sourcery-g++/bin/../lib/gcc/arm-none-eabi/4.4.1/thumb2\libgcc.a(_udivdi3.o)

.debug_str      0x00000000     0x6c43
 *(.debug_str)
 .debug_str     0x00000000     0x11ea ./main.o
                               0x12e3 (size before relaxing)
 .debug_str     0x000011ea      0x1ca ./webclient/webclient-strings.o
                                0x289 (size before relaxing)
 .debug_str     0x000013b4      0x221 ./webclient/webclient.o
                                0x457 (size before relaxing)
 .debug_str     0x000015d5      0x126 ./uip/psock.o
                                0x3b4 (size before relaxing)
 .debug_str     0x000016fb      0x17c ./uip/uip-fw.o
                                0x369 (size before relaxing)
 .debug_str     0x00001877       0xbc ./uip/uip-neighbor.o
                                0x256 (size before relaxing)
 .debug_str     0x00001933       0x4d ./uip/uip-split.o
                                0x23e (size before relaxing)
 .debug_str     0x00001980      0x313 ./uip/uip.o
                                0x6a8 (size before relaxing)
 .debug_str     0x00001c93      0x10d ./uip/uip_arp.o
                                0x335 (size before relaxing)
 .debug_str     0x00001da0       0x2a ./uip/uiplib.o
                                0x174 (size before relaxing)
 .debug_str     0x00001dca      0x13f ./resolv/resolv.o
                                0x32d (size before relaxing)
 .debug_str     0x00001f09      0x7d2 ./mac/tcpip.o
                                0x9de (size before relaxing)
 .debug_str     0x000026db      0x12b ./jsmn/jsmn.o
                                0x298 (size before relaxing)
 .debug_str     0x00002806      0x173 ./application_tasks/controller_task.o
                               0x1036 (size before relaxing)
 .debug_str     0x00002979      0x288 ./application_tasks/http_task.o
                                0x703 (size before relaxing)
 .debug_str     0x00002c01       0xe7 ./application_tasks/lcd_task.o
                                0x31e (size before relaxing)
 .debug_str     0x00002ce8      0x367 ./application_tasks/nunchuck_task.o
                               0x1113 (size before relaxing)
 .debug_str     0x0000304f      0x131 ./FreeRTOS/list.o
                                0x287 (size before relaxing)
 .debug_str     0x00003180      0x3a5 ./FreeRTOS/queue.o
                                0x5b8 (size before relaxing)
 .debug_str     0x00003525      0x799 ./FreeRTOS/tasks.o
                                0xa10 (size before relaxing)
 .debug_str     0x00003cbe      0x33a ./FreeRTOS/timers.o
                                0x591 (size before relaxing)
 .debug_str     0x00003ff8       0x52 ./FreeRTOS/portable/MemMang/heap_3.o
                                0x19c (size before relaxing)
 .debug_str     0x0000404a      0x133 ./FreeRTOS/portable/GCC/ARM_CM3/port.o
                                0x2a0 (size before relaxing)
 .debug_str     0x0000417d      0x7ab ./BSP/spi_flash_driver/spi_flash.o
                               0x1436 (size before relaxing)
 .debug_str     0x00004928      0x420 ./BSP/i2c_driver/i2c.o
                               0x1440 (size before relaxing)
 .debug_str     0x00004d48      0x1c7 ./BSP/emc_driver/nor.o
                                0x344 (size before relaxing)
 .debug_str     0x00004f0f      0x27e C:/Users/kylebs/Desktop/FreeRTOS-lwIP-takeDeux/FreeRTOS-lwIP/Webserver_uIPRTOS_SC_DF/EVAL_KIT/SF_Webserver_Demo/SoftConsole/Webserver_MSS_CM3_0/Webserver_MSS_CM3_0_hw_platform/Debug/CMSIS/startup_gcc/newlib_stubs.o
                               0x10f6 (size before relaxing)
 .debug_str     0x0000518d       0x73 C:\Users\kylebs\Desktop\FreeRTOS-lwIP-takeDeux\FreeRTOS-lwIP\Webserver_uIPRTOS_SC_DF\EVAL_KIT\SF_Webserver_Demo\SoftConsole\Webserver_MSS_CM3_0\Webserver_MSS_CM3_0_hw_platform\Debug\libWebserver_MSS_CM3_0_hw_platform.a(plotter_platform.o)
                                0x2ea (size before relaxing)
 .debug_str     0x00005200      0x3a1 C:\Users\kylebs\Desktop\FreeRTOS-lwIP-takeDeux\FreeRTOS-lwIP\Webserver_uIPRTOS_SC_DF\EVAL_KIT\SF_Webserver_Demo\SoftConsole\Webserver_MSS_CM3_0\Webserver_MSS_CM3_0_hw_platform\Debug\libWebserver_MSS_CM3_0_hw_platform.a(mss_uart.o)
                               0x1507 (size before relaxing)
 .debug_str     0x000055a1      0x31d C:\Users\kylebs\Desktop\FreeRTOS-lwIP-takeDeux\FreeRTOS-lwIP\Webserver_uIPRTOS_SC_DF\EVAL_KIT\SF_Webserver_Demo\SoftConsole\Webserver_MSS_CM3_0\Webserver_MSS_CM3_0_hw_platform\Debug\libWebserver_MSS_CM3_0_hw_platform.a(mss_spi.o)
                               0x165a (size before relaxing)
 .debug_str     0x000058be      0x300 C:\Users\kylebs\Desktop\FreeRTOS-lwIP-takeDeux\FreeRTOS-lwIP\Webserver_uIPRTOS_SC_DF\EVAL_KIT\SF_Webserver_Demo\SoftConsole\Webserver_MSS_CM3_0\Webserver_MSS_CM3_0_hw_platform\Debug\libWebserver_MSS_CM3_0_hw_platform.a(mss_pdma.o)
                               0x1284 (size before relaxing)
 .debug_str     0x00005bbe      0x2df C:\Users\kylebs\Desktop\FreeRTOS-lwIP-takeDeux\FreeRTOS-lwIP\Webserver_uIPRTOS_SC_DF\EVAL_KIT\SF_Webserver_Demo\SoftConsole\Webserver_MSS_CM3_0\Webserver_MSS_CM3_0_hw_platform\Debug\libWebserver_MSS_CM3_0_hw_platform.a(mss_gpio.o)
                               0x12df (size before relaxing)
 .debug_str     0x00005e9d      0x957 C:\Users\kylebs\Desktop\FreeRTOS-lwIP-takeDeux\FreeRTOS-lwIP\Webserver_uIPRTOS_SC_DF\EVAL_KIT\SF_Webserver_Demo\SoftConsole\Webserver_MSS_CM3_0\Webserver_MSS_CM3_0_hw_platform\Debug\libWebserver_MSS_CM3_0_hw_platform.a(mss_ethernet_mac.o)
                                0xe05 (size before relaxing)
 .debug_str     0x000067f4      0x10f C:\Users\kylebs\Desktop\FreeRTOS-lwIP-takeDeux\FreeRTOS-lwIP\Webserver_uIPRTOS_SC_DF\EVAL_KIT\SF_Webserver_Demo\SoftConsole\Webserver_MSS_CM3_0\Webserver_MSS_CM3_0_hw_platform\Debug\libWebserver_MSS_CM3_0_hw_platform.a(phy.o)
                                0x91b (size before relaxing)
 .debug_str     0x00006903       0x72 C:\Users\kylebs\Desktop\FreeRTOS-lwIP-takeDeux\FreeRTOS-lwIP\Webserver_uIPRTOS_SC_DF\EVAL_KIT\SF_Webserver_Demo\SoftConsole\Webserver_MSS_CM3_0\Webserver_MSS_CM3_0_hw_platform\Debug\libWebserver_MSS_CM3_0_hw_platform.a(core_uart_apb.o)
                                0x2ce (size before relaxing)
 .debug_str     0x00006975      0x133 C:\Users\kylebs\Desktop\FreeRTOS-lwIP-takeDeux\FreeRTOS-lwIP\Webserver_uIPRTOS_SC_DF\EVAL_KIT\SF_Webserver_Demo\SoftConsole\Webserver_MSS_CM3_0\Webserver_MSS_CM3_0_hw_platform\Debug\libWebserver_MSS_CM3_0_hw_platform.a(core_cm3.o)
                                0x2bd (size before relaxing)
 .debug_str     0x00006aa8       0xe7 C:\Users\kylebs\Desktop\FreeRTOS-lwIP-takeDeux\FreeRTOS-lwIP\Webserver_uIPRTOS_SC_DF\EVAL_KIT\SF_Webserver_Demo\SoftConsole\Webserver_MSS_CM3_0\Webserver_MSS_CM3_0_hw_platform\Debug\libWebserver_MSS_CM3_0_hw_platform.a(system_a2fxxxm3.o)
                                0x4aa (size before relaxing)
 .debug_str     0x00006b8f       0x59 C:\Users\kylebs\Desktop\FreeRTOS-lwIP-takeDeux\FreeRTOS-lwIP\Webserver_uIPRTOS_SC_DF\EVAL_KIT\SF_Webserver_Demo\SoftConsole\Webserver_MSS_CM3_0\Webserver_MSS_CM3_0_hw_platform\Debug\libWebserver_MSS_CM3_0_hw_platform.a(hal_assert.o)
                                0x1c5 (size before relaxing)
 .debug_str     0x00006be8       0x5b C:\Users\kylebs\Desktop\FreeRTOS-lwIP-takeDeux\FreeRTOS-lwIP\Webserver_uIPRTOS_SC_DF\EVAL_KIT\SF_Webserver_Demo\SoftConsole\Webserver_MSS_CM3_0\Webserver_MSS_CM3_0_hw_platform\Debug\libWebserver_MSS_CM3_0_hw_platform.a(crc32.o)
                                0x1bd (size before relaxing)

.debug_loc      0x00000000     0x5736
 *(.debug_loc)
 .debug_loc     0x00000000      0x240 ./main.o
 .debug_loc     0x00000240      0x347 ./webclient/webclient.o
 .debug_loc     0x00000587      0x27c ./uip/psock.o
 .debug_loc     0x00000803      0x226 ./uip/uip-fw.o
 .debug_loc     0x00000a29      0x14a ./uip/uip-neighbor.o
 .debug_loc     0x00000b73       0x37 ./uip/uip-split.o
 .debug_loc     0x00000baa      0x383 ./uip/uip.o
 .debug_loc     0x00000f2d       0xfb ./uip/uip_arp.o
 .debug_loc     0x00001028       0x37 ./uip/uiplib.o
 .debug_loc     0x0000105f      0x1cb ./resolv/resolv.o
 .debug_loc     0x0000122a      0x40b ./mac/tcpip.o
 .debug_loc     0x00001635      0x14a ./jsmn/jsmn.o
 .debug_loc     0x0000177f      0x107 ./application_tasks/controller_task.o
 .debug_loc     0x00001886      0x2c8 ./application_tasks/http_task.o
 .debug_loc     0x00001b4e       0xd0 ./application_tasks/lcd_task.o
 .debug_loc     0x00001c1e       0x6e ./application_tasks/nunchuck_task.o
 .debug_loc     0x00001c8c      0x113 ./FreeRTOS/list.o
 .debug_loc     0x00001d9f      0x44c ./FreeRTOS/queue.o
 .debug_loc     0x000021eb      0x831 ./FreeRTOS/tasks.o
 .debug_loc     0x00002a1c      0x2f6 ./FreeRTOS/timers.o
 .debug_loc     0x00002d12       0x6e ./FreeRTOS/portable/MemMang/heap_3.o
 .debug_loc     0x00002d80      0x170 ./FreeRTOS/portable/GCC/ARM_CM3/port.o
 .debug_loc     0x00002ef0      0x14c ./BSP/spi_flash_driver/spi_flash.o
 .debug_loc     0x0000303c      0x3fd ./BSP/i2c_driver/i2c.o
 .debug_loc     0x00003439      0x175 ./BSP/emc_driver/nor.o
 .debug_loc     0x000035ae      0x3c6 C:/Users/kylebs/Desktop/FreeRTOS-lwIP-takeDeux/FreeRTOS-lwIP/Webserver_uIPRTOS_SC_DF/EVAL_KIT/SF_Webserver_Demo/SoftConsole/Webserver_MSS_CM3_0/Webserver_MSS_CM3_0_hw_platform/Debug/CMSIS/startup_gcc/newlib_stubs.o
 .debug_loc     0x00003974       0x37 C:\Users\kylebs\Desktop\FreeRTOS-lwIP-takeDeux\FreeRTOS-lwIP\Webserver_uIPRTOS_SC_DF\EVAL_KIT\SF_Webserver_Demo\SoftConsole\Webserver_MSS_CM3_0\Webserver_MSS_CM3_0_hw_platform\Debug\libWebserver_MSS_CM3_0_hw_platform.a(plotter_platform.o)
 .debug_loc     0x000039ab      0x510 C:\Users\kylebs\Desktop\FreeRTOS-lwIP-takeDeux\FreeRTOS-lwIP\Webserver_uIPRTOS_SC_DF\EVAL_KIT\SF_Webserver_Demo\SoftConsole\Webserver_MSS_CM3_0\Webserver_MSS_CM3_0_hw_platform\Debug\libWebserver_MSS_CM3_0_hw_platform.a(mss_uart.o)
 .debug_loc     0x00003ebb      0x512 C:\Users\kylebs\Desktop\FreeRTOS-lwIP-takeDeux\FreeRTOS-lwIP\Webserver_uIPRTOS_SC_DF\EVAL_KIT\SF_Webserver_Demo\SoftConsole\Webserver_MSS_CM3_0\Webserver_MSS_CM3_0_hw_platform\Debug\libWebserver_MSS_CM3_0_hw_platform.a(mss_spi.o)
 .debug_loc     0x000043cd      0x294 C:\Users\kylebs\Desktop\FreeRTOS-lwIP-takeDeux\FreeRTOS-lwIP\Webserver_uIPRTOS_SC_DF\EVAL_KIT\SF_Webserver_Demo\SoftConsole\Webserver_MSS_CM3_0\Webserver_MSS_CM3_0_hw_platform\Debug\libWebserver_MSS_CM3_0_hw_platform.a(mss_pdma.o)
 .debug_loc     0x00004661      0x1ef C:\Users\kylebs\Desktop\FreeRTOS-lwIP-takeDeux\FreeRTOS-lwIP\Webserver_uIPRTOS_SC_DF\EVAL_KIT\SF_Webserver_Demo\SoftConsole\Webserver_MSS_CM3_0\Webserver_MSS_CM3_0_hw_platform\Debug\libWebserver_MSS_CM3_0_hw_platform.a(mss_gpio.o)
 .debug_loc     0x00004850      0x625 C:\Users\kylebs\Desktop\FreeRTOS-lwIP-takeDeux\FreeRTOS-lwIP\Webserver_uIPRTOS_SC_DF\EVAL_KIT\SF_Webserver_Demo\SoftConsole\Webserver_MSS_CM3_0\Webserver_MSS_CM3_0_hw_platform\Debug\libWebserver_MSS_CM3_0_hw_platform.a(mss_ethernet_mac.o)
 .debug_loc     0x00004e75      0x251 C:\Users\kylebs\Desktop\FreeRTOS-lwIP-takeDeux\FreeRTOS-lwIP\Webserver_uIPRTOS_SC_DF\EVAL_KIT\SF_Webserver_Demo\SoftConsole\Webserver_MSS_CM3_0\Webserver_MSS_CM3_0_hw_platform\Debug\libWebserver_MSS_CM3_0_hw_platform.a(phy.o)
 .debug_loc     0x000050c6      0x154 C:\Users\kylebs\Desktop\FreeRTOS-lwIP-takeDeux\FreeRTOS-lwIP\Webserver_uIPRTOS_SC_DF\EVAL_KIT\SF_Webserver_Demo\SoftConsole\Webserver_MSS_CM3_0\Webserver_MSS_CM3_0_hw_platform\Debug\libWebserver_MSS_CM3_0_hw_platform.a(core_uart_apb.o)
 .debug_loc     0x0000521a      0x3de C:\Users\kylebs\Desktop\FreeRTOS-lwIP-takeDeux\FreeRTOS-lwIP\Webserver_uIPRTOS_SC_DF\EVAL_KIT\SF_Webserver_Demo\SoftConsole\Webserver_MSS_CM3_0\Webserver_MSS_CM3_0_hw_platform\Debug\libWebserver_MSS_CM3_0_hw_platform.a(core_cm3.o)
 .debug_loc     0x000055f8       0x99 C:\Users\kylebs\Desktop\FreeRTOS-lwIP-takeDeux\FreeRTOS-lwIP\Webserver_uIPRTOS_SC_DF\EVAL_KIT\SF_Webserver_Demo\SoftConsole\Webserver_MSS_CM3_0\Webserver_MSS_CM3_0_hw_platform\Debug\libWebserver_MSS_CM3_0_hw_platform.a(system_a2fxxxm3.o)
 .debug_loc     0x00005691       0x37 C:\Users\kylebs\Desktop\FreeRTOS-lwIP-takeDeux\FreeRTOS-lwIP\Webserver_uIPRTOS_SC_DF\EVAL_KIT\SF_Webserver_Demo\SoftConsole\Webserver_MSS_CM3_0\Webserver_MSS_CM3_0_hw_platform\Debug\libWebserver_MSS_CM3_0_hw_platform.a(hal_assert.o)
 .debug_loc     0x000056c8       0x6e C:\Users\kylebs\Desktop\FreeRTOS-lwIP-takeDeux\FreeRTOS-lwIP\Webserver_uIPRTOS_SC_DF\EVAL_KIT\SF_Webserver_Demo\SoftConsole\Webserver_MSS_CM3_0\Webserver_MSS_CM3_0_hw_platform\Debug\libWebserver_MSS_CM3_0_hw_platform.a(crc32.o)

.debug_macinfo  0x00000000    0xf50cd
 *(.debug_macinfo)
 .debug_macinfo
                0x00000000     0xb9aa ./main.o
 .debug_macinfo
                0x0000b9aa      0xc9b ./webclient/webclient-strings.o
 .debug_macinfo
                0x0000c645     0x6658 ./webclient/webclient.o
 .debug_macinfo
                0x00012c9d     0x6f58 ./uip/psock.o
 .debug_macinfo
                0x00019bf5     0x5adb ./uip/uip-fw.o
 .debug_macinfo
                0x0001f6d0     0x57f9 ./uip/uip-neighbor.o
 .debug_macinfo
                0x00024ec9     0x5a83 ./uip/uip-split.o
 .debug_macinfo
                0x0002a94c     0x67ba ./uip/uip.o
 .debug_macinfo
                0x00031106     0x59bb ./uip/uip_arp.o
 .debug_macinfo
                0x00036ac1     0x3afc ./uip/uiplib.o
 .debug_macinfo
                0x0003a5bd     0x66e3 ./resolv/resolv.o
 .debug_macinfo
                0x00040ca0     0xb2e5 ./mac/tcpip.o
 .debug_macinfo
                0x0004bf85     0x2b21 ./jsmn/jsmn.o
 .debug_macinfo
                0x0004eaa6     0xc94a ./application_tasks/controller_task.o
 .debug_macinfo
                0x0005b3f0     0xe631 ./application_tasks/http_task.o
 .debug_macinfo
                0x00069a21     0xc3fd ./application_tasks/lcd_task.o
 .debug_macinfo
                0x00075e1e     0xc472 ./application_tasks/nunchuck_task.o
 .debug_macinfo
                0x00082290     0x4ece ./FreeRTOS/list.o
 .debug_macinfo
                0x0008715e     0x5bca ./FreeRTOS/queue.o
 .debug_macinfo
                0x0008cd28     0x6db1 ./FreeRTOS/tasks.o
 .debug_macinfo
                0x00093ad9     0x430b ./FreeRTOS/timers.o
 .debug_macinfo
                0x00097de4     0x526d ./FreeRTOS/portable/MemMang/heap_3.o
 .debug_macinfo
                0x0009d051     0x382b ./FreeRTOS/portable/GCC/ARM_CM3/port.o
 .debug_macinfo
                0x000a087c     0x789e ./BSP/spi_flash_driver/spi_flash.o
 .debug_macinfo
                0x000a811a     0x5a61 ./BSP/i2c_driver/i2c.o
 .debug_macinfo
                0x000adb7b     0x2240 ./BSP/emc_driver/nor.o
 .debug_macinfo
                0x000afdbb     0x9d08 C:/Users/kylebs/Desktop/FreeRTOS-lwIP-takeDeux/FreeRTOS-lwIP/Webserver_uIPRTOS_SC_DF/EVAL_KIT/SF_Webserver_Demo/SoftConsole/Webserver_MSS_CM3_0/Webserver_MSS_CM3_0_hw_platform/Debug/CMSIS/startup_gcc/newlib_stubs.o
 .debug_macinfo
                0x000b9ac3     0x7cc7 C:\Users\kylebs\Desktop\FreeRTOS-lwIP-takeDeux\FreeRTOS-lwIP\Webserver_uIPRTOS_SC_DF\EVAL_KIT\SF_Webserver_Demo\SoftConsole\Webserver_MSS_CM3_0\Webserver_MSS_CM3_0_hw_platform\Debug\libWebserver_MSS_CM3_0_hw_platform.a(plotter_platform.o)
 .debug_macinfo
                0x000c178a     0x63e4 C:\Users\kylebs\Desktop\FreeRTOS-lwIP-takeDeux\FreeRTOS-lwIP\Webserver_uIPRTOS_SC_DF\EVAL_KIT\SF_Webserver_Demo\SoftConsole\Webserver_MSS_CM3_0\Webserver_MSS_CM3_0_hw_platform\Debug\libWebserver_MSS_CM3_0_hw_platform.a(mss_uart.o)
 .debug_macinfo
                0x000c7b6e     0x5b18 C:\Users\kylebs\Desktop\FreeRTOS-lwIP-takeDeux\FreeRTOS-lwIP\Webserver_uIPRTOS_SC_DF\EVAL_KIT\SF_Webserver_Demo\SoftConsole\Webserver_MSS_CM3_0\Webserver_MSS_CM3_0_hw_platform\Debug\libWebserver_MSS_CM3_0_hw_platform.a(mss_spi.o)
 .debug_macinfo
                0x000cd686     0x5ea4 C:\Users\kylebs\Desktop\FreeRTOS-lwIP-takeDeux\FreeRTOS-lwIP\Webserver_uIPRTOS_SC_DF\EVAL_KIT\SF_Webserver_Demo\SoftConsole\Webserver_MSS_CM3_0\Webserver_MSS_CM3_0_hw_platform\Debug\libWebserver_MSS_CM3_0_hw_platform.a(mss_pdma.o)
 .debug_macinfo
                0x000d352a     0x5cfb C:\Users\kylebs\Desktop\FreeRTOS-lwIP-takeDeux\FreeRTOS-lwIP\Webserver_uIPRTOS_SC_DF\EVAL_KIT\SF_Webserver_Demo\SoftConsole\Webserver_MSS_CM3_0\Webserver_MSS_CM3_0_hw_platform\Debug\libWebserver_MSS_CM3_0_hw_platform.a(mss_gpio.o)
 .debug_macinfo
                0x000d9225     0x8055 C:\Users\kylebs\Desktop\FreeRTOS-lwIP-takeDeux\FreeRTOS-lwIP\Webserver_uIPRTOS_SC_DF\EVAL_KIT\SF_Webserver_Demo\SoftConsole\Webserver_MSS_CM3_0\Webserver_MSS_CM3_0_hw_platform\Debug\libWebserver_MSS_CM3_0_hw_platform.a(mss_ethernet_mac.o)
 .debug_macinfo
                0x000e127a     0x7812 C:\Users\kylebs\Desktop\FreeRTOS-lwIP-takeDeux\FreeRTOS-lwIP\Webserver_uIPRTOS_SC_DF\EVAL_KIT\SF_Webserver_Demo\SoftConsole\Webserver_MSS_CM3_0\Webserver_MSS_CM3_0_hw_platform\Debug\libWebserver_MSS_CM3_0_hw_platform.a(phy.o)
 .debug_macinfo
                0x000e8a8c     0x2451 C:\Users\kylebs\Desktop\FreeRTOS-lwIP-takeDeux\FreeRTOS-lwIP\Webserver_uIPRTOS_SC_DF\EVAL_KIT\SF_Webserver_Demo\SoftConsole\Webserver_MSS_CM3_0\Webserver_MSS_CM3_0_hw_platform\Debug\libWebserver_MSS_CM3_0_hw_platform.a(core_uart_apb.o)
 .debug_macinfo
                0x000eaedd     0x152c C:\Users\kylebs\Desktop\FreeRTOS-lwIP-takeDeux\FreeRTOS-lwIP\Webserver_uIPRTOS_SC_DF\EVAL_KIT\SF_Webserver_Demo\SoftConsole\Webserver_MSS_CM3_0\Webserver_MSS_CM3_0_hw_platform\Debug\libWebserver_MSS_CM3_0_hw_platform.a(core_cm3.o)
 .debug_macinfo
                0x000ec409     0x5a99 C:\Users\kylebs\Desktop\FreeRTOS-lwIP-takeDeux\FreeRTOS-lwIP\Webserver_uIPRTOS_SC_DF\EVAL_KIT\SF_Webserver_Demo\SoftConsole\Webserver_MSS_CM3_0\Webserver_MSS_CM3_0_hw_platform\Debug\libWebserver_MSS_CM3_0_hw_platform.a(system_a2fxxxm3.o)
 .debug_macinfo
                0x000f1ea2     0x1cfc C:\Users\kylebs\Desktop\FreeRTOS-lwIP-takeDeux\FreeRTOS-lwIP\Webserver_uIPRTOS_SC_DF\EVAL_KIT\SF_Webserver_Demo\SoftConsole\Webserver_MSS_CM3_0\Webserver_MSS_CM3_0_hw_platform\Debug\libWebserver_MSS_CM3_0_hw_platform.a(hal_assert.o)
 .debug_macinfo
                0x000f3b9e     0x152f C:\Users\kylebs\Desktop\FreeRTOS-lwIP-takeDeux\FreeRTOS-lwIP\Webserver_uIPRTOS_SC_DF\EVAL_KIT\SF_Webserver_Demo\SoftConsole\Webserver_MSS_CM3_0\Webserver_MSS_CM3_0_hw_platform\Debug\libWebserver_MSS_CM3_0_hw_platform.a(crc32.o)

.debug_weaknames
 *(.debug_weaknames)

.debug_funcnames
 *(.debug_funcnames)

.debug_typenames
 *(.debug_typenames)

.debug_varnames
 *(.debug_varnames)

.note.gnu.arm.ident
 *(.note.gnu.arm.ident)

.ARM.attributes
                0x00000000       0x25
 *(.ARM.attributes)
 .ARM.attributes
                0x00000000       0x19 c:/actel/libero_v9.1/softconsole/sourcery-g++/bin/../lib/gcc/arm-none-eabi/4.4.1/thumb2/crti.o
 .ARM.attributes
                0x00000019       0x29 c:/actel/libero_v9.1/softconsole/sourcery-g++/bin/../lib/gcc/arm-none-eabi/4.4.1/thumb2/crtbegin.o
 .ARM.attributes
                0x00000042       0x31 ./main.o
 .ARM.attributes
                0x00000073       0x31 ./webclient/webclient-strings.o
 .ARM.attributes
                0x000000a4       0x31 ./webclient/webclient.o
 .ARM.attributes
                0x000000d5       0x31 ./uip/psock.o
 .ARM.attributes
                0x00000106       0x31 ./uip/uip-fw.o
 .ARM.attributes
                0x00000137       0x31 ./uip/uip-neighbor.o
 .ARM.attributes
                0x00000168       0x31 ./uip/uip-split.o
 .ARM.attributes
                0x00000199       0x31 ./uip/uip.o
 .ARM.attributes
                0x000001ca       0x31 ./uip/uip_arp.o
 .ARM.attributes
                0x000001fb       0x31 ./uip/uiplib.o
 .ARM.attributes
                0x0000022c       0x31 ./resolv/resolv.o
 .ARM.attributes
                0x0000025d       0x31 ./mac/tcpip.o
 .ARM.attributes
                0x0000028e       0x31 ./jsmn/jsmn.o
 .ARM.attributes
                0x000002bf       0x31 ./application_tasks/controller_task.o
 .ARM.attributes
                0x000002f0       0x31 ./application_tasks/http_task.o
 .ARM.attributes
                0x00000321       0x31 ./application_tasks/lcd_task.o
 .ARM.attributes
                0x00000352       0x31 ./application_tasks/nunchuck_task.o
 .ARM.attributes
                0x00000383       0x31 ./FreeRTOS/list.o
 .ARM.attributes
                0x000003b4       0x31 ./FreeRTOS/queue.o
 .ARM.attributes
                0x000003e5       0x31 ./FreeRTOS/tasks.o
 .ARM.attributes
                0x00000416       0x31 ./FreeRTOS/timers.o
 .ARM.attributes
                0x00000447       0x31 ./FreeRTOS/portable/MemMang/heap_3.o
 .ARM.attributes
                0x00000478       0x31 ./FreeRTOS/portable/GCC/ARM_CM3/port.o
 .ARM.attributes
                0x000004a9       0x31 ./BSP/spi_flash_driver/spi_flash.o
 .ARM.attributes
                0x000004da       0x31 ./BSP/i2c_driver/i2c.o
 .ARM.attributes
                0x0000050b       0x31 ./BSP/emc_driver/nor.o
 .ARM.attributes
                0x0000053c       0x21 C:/Users/kylebs/Desktop/FreeRTOS-lwIP-takeDeux/FreeRTOS-lwIP/Webserver_uIPRTOS_SC_DF/EVAL_KIT/SF_Webserver_Demo/SoftConsole/Webserver_MSS_CM3_0/Webserver_MSS_CM3_0_hw_platform/Debug/CMSIS/startup_gcc/startup_a2fxxxm3.o
 .ARM.attributes
                0x0000055d       0x31 C:/Users/kylebs/Desktop/FreeRTOS-lwIP-takeDeux/FreeRTOS-lwIP/Webserver_uIPRTOS_SC_DF/EVAL_KIT/SF_Webserver_Demo/SoftConsole/Webserver_MSS_CM3_0/Webserver_MSS_CM3_0_hw_platform/Debug/CMSIS/startup_gcc/newlib_stubs.o
 .ARM.attributes
                0x0000058e       0x31 C:\Users\kylebs\Desktop\FreeRTOS-lwIP-takeDeux\FreeRTOS-lwIP\Webserver_uIPRTOS_SC_DF\EVAL_KIT\SF_Webserver_Demo\SoftConsole\Webserver_MSS_CM3_0\Webserver_MSS_CM3_0_hw_platform\Debug\libWebserver_MSS_CM3_0_hw_platform.a(plotter_platform.o)
 .ARM.attributes
                0x000005bf       0x31 C:\Users\kylebs\Desktop\FreeRTOS-lwIP-takeDeux\FreeRTOS-lwIP\Webserver_uIPRTOS_SC_DF\EVAL_KIT\SF_Webserver_Demo\SoftConsole\Webserver_MSS_CM3_0\Webserver_MSS_CM3_0_hw_platform\Debug\libWebserver_MSS_CM3_0_hw_platform.a(mss_uart.o)
 .ARM.attributes
                0x000005f0       0x31 C:\Users\kylebs\Desktop\FreeRTOS-lwIP-takeDeux\FreeRTOS-lwIP\Webserver_uIPRTOS_SC_DF\EVAL_KIT\SF_Webserver_Demo\SoftConsole\Webserver_MSS_CM3_0\Webserver_MSS_CM3_0_hw_platform\Debug\libWebserver_MSS_CM3_0_hw_platform.a(mss_spi.o)
 .ARM.attributes
                0x00000621       0x31 C:\Users\kylebs\Desktop\FreeRTOS-lwIP-takeDeux\FreeRTOS-lwIP\Webserver_uIPRTOS_SC_DF\EVAL_KIT\SF_Webserver_Demo\SoftConsole\Webserver_MSS_CM3_0\Webserver_MSS_CM3_0_hw_platform\Debug\libWebserver_MSS_CM3_0_hw_platform.a(mss_pdma.o)
 .ARM.attributes
                0x00000652       0x31 C:\Users\kylebs\Desktop\FreeRTOS-lwIP-takeDeux\FreeRTOS-lwIP\Webserver_uIPRTOS_SC_DF\EVAL_KIT\SF_Webserver_Demo\SoftConsole\Webserver_MSS_CM3_0\Webserver_MSS_CM3_0_hw_platform\Debug\libWebserver_MSS_CM3_0_hw_platform.a(mss_gpio.o)
 .ARM.attributes
                0x00000683       0x31 C:\Users\kylebs\Desktop\FreeRTOS-lwIP-takeDeux\FreeRTOS-lwIP\Webserver_uIPRTOS_SC_DF\EVAL_KIT\SF_Webserver_Demo\SoftConsole\Webserver_MSS_CM3_0\Webserver_MSS_CM3_0_hw_platform\Debug\libWebserver_MSS_CM3_0_hw_platform.a(mss_ethernet_mac.o)
 .ARM.attributes
                0x000006b4       0x31 C:\Users\kylebs\Desktop\FreeRTOS-lwIP-takeDeux\FreeRTOS-lwIP\Webserver_uIPRTOS_SC_DF\EVAL_KIT\SF_Webserver_Demo\SoftConsole\Webserver_MSS_CM3_0\Webserver_MSS_CM3_0_hw_platform\Debug\libWebserver_MSS_CM3_0_hw_platform.a(phy.o)
 .ARM.attributes
                0x000006e5       0x31 C:\Users\kylebs\Desktop\FreeRTOS-lwIP-takeDeux\FreeRTOS-lwIP\Webserver_uIPRTOS_SC_DF\EVAL_KIT\SF_Webserver_Demo\SoftConsole\Webserver_MSS_CM3_0\Webserver_MSS_CM3_0_hw_platform\Debug\libWebserver_MSS_CM3_0_hw_platform.a(core_uart_apb.o)
 .ARM.attributes
                0x00000716       0x31 C:\Users\kylebs\Desktop\FreeRTOS-lwIP-takeDeux\FreeRTOS-lwIP\Webserver_uIPRTOS_SC_DF\EVAL_KIT\SF_Webserver_Demo\SoftConsole\Webserver_MSS_CM3_0\Webserver_MSS_CM3_0_hw_platform\Debug\libWebserver_MSS_CM3_0_hw_platform.a(core_cm3.o)
 .ARM.attributes
                0x00000747       0x31 C:\Users\kylebs\Desktop\FreeRTOS-lwIP-takeDeux\FreeRTOS-lwIP\Webserver_uIPRTOS_SC_DF\EVAL_KIT\SF_Webserver_Demo\SoftConsole\Webserver_MSS_CM3_0\Webserver_MSS_CM3_0_hw_platform\Debug\libWebserver_MSS_CM3_0_hw_platform.a(system_a2fxxxm3.o)
 .ARM.attributes
                0x00000778       0x31 C:\Users\kylebs\Desktop\FreeRTOS-lwIP-takeDeux\FreeRTOS-lwIP\Webserver_uIPRTOS_SC_DF\EVAL_KIT\SF_Webserver_Demo\SoftConsole\Webserver_MSS_CM3_0\Webserver_MSS_CM3_0_hw_platform\Debug\libWebserver_MSS_CM3_0_hw_platform.a(hal_assert.o)
 .ARM.attributes
                0x000007a9       0x21 C:\Users\kylebs\Desktop\FreeRTOS-lwIP-takeDeux\FreeRTOS-lwIP\Webserver_uIPRTOS_SC_DF\EVAL_KIT\SF_Webserver_Demo\SoftConsole\Webserver_MSS_CM3_0\Webserver_MSS_CM3_0_hw_platform\Debug\libWebserver_MSS_CM3_0_hw_platform.a(hw_reg_access.o)
 .ARM.attributes
                0x000007ca       0x31 C:\Users\kylebs\Desktop\FreeRTOS-lwIP-takeDeux\FreeRTOS-lwIP\Webserver_uIPRTOS_SC_DF\EVAL_KIT\SF_Webserver_Demo\SoftConsole\Webserver_MSS_CM3_0\Webserver_MSS_CM3_0_hw_platform\Debug\libWebserver_MSS_CM3_0_hw_platform.a(crc32.o)
 .ARM.attributes
                0x000007fb       0x1b c:/actel/libero_v9.1/softconsole/sourcery-g++/bin/../lib/gcc/arm-none-eabi/4.4.1/thumb2\libgcc.a(_arm_addsubsf3.o)
 .ARM.attributes
                0x00000816       0x1b c:/actel/libero_v9.1/softconsole/sourcery-g++/bin/../lib/gcc/arm-none-eabi/4.4.1/thumb2\libgcc.a(_arm_muldivsf3.o)
 .ARM.attributes
                0x00000831       0x1b c:/actel/libero_v9.1/softconsole/sourcery-g++/bin/../lib/gcc/arm-none-eabi/4.4.1/thumb2\libgcc.a(_arm_fixunssfsi.o)
 .ARM.attributes
                0x0000084c       0x29 c:/actel/libero_v9.1/softconsole/sourcery-g++/bin/../lib/gcc/arm-none-eabi/4.4.1/../../../../arm-none-eabi/lib/thumb2\libc.a(lib_a-errno.o)
 .ARM.attributes
                0x00000875       0x29 c:/actel/libero_v9.1/softconsole/sourcery-g++/bin/../lib/gcc/arm-none-eabi/4.4.1/../../../../arm-none-eabi/lib/thumb2\libc.a(lib_a-impure.o)
 .ARM.attributes
                0x0000089e       0x29 c:/actel/libero_v9.1/softconsole/sourcery-g++/bin/../lib/gcc/arm-none-eabi/4.4.1/../../../../arm-none-eabi/lib/thumb2\libc.a(lib_a-init.o)
 .ARM.attributes
                0x000008c7       0x29 c:/actel/libero_v9.1/softconsole/sourcery-g++/bin/../lib/gcc/arm-none-eabi/4.4.1/../../../../arm-none-eabi/lib/thumb2\libc.a(lib_a-malloc.o)
 .ARM.attributes
                0x000008f0       0x29 c:/actel/libero_v9.1/softconsole/sourcery-g++/bin/../lib/gcc/arm-none-eabi/4.4.1/../../../../arm-none-eabi/lib/thumb2\libc.a(lib_a-mallocr.o)
 .ARM.attributes
                0x00000919       0x29 c:/actel/libero_v9.1/softconsole/sourcery-g++/bin/../lib/gcc/arm-none-eabi/4.4.1/../../../../arm-none-eabi/lib/thumb2\libc.a(lib_a-memcmp.o)
 .ARM.attributes
                0x00000942       0x29 c:/actel/libero_v9.1/softconsole/sourcery-g++/bin/../lib/gcc/arm-none-eabi/4.4.1/../../../../arm-none-eabi/lib/thumb2\libc.a(lib_a-memcpy.o)
 .ARM.attributes
                0x0000096b       0x29 c:/actel/libero_v9.1/softconsole/sourcery-g++/bin/../lib/gcc/arm-none-eabi/4.4.1/../../../../arm-none-eabi/lib/thumb2\libc.a(lib_a-memset.o)
 .ARM.attributes
                0x00000994       0x29 c:/actel/libero_v9.1/softconsole/sourcery-g++/bin/../lib/gcc/arm-none-eabi/4.4.1/../../../../arm-none-eabi/lib/thumb2\libc.a(lib_a-mlock.o)
 .ARM.attributes
                0x000009bd       0x29 c:/actel/libero_v9.1/softconsole/sourcery-g++/bin/../lib/gcc/arm-none-eabi/4.4.1/../../../../arm-none-eabi/lib/thumb2\libc.a(lib_a-printf.o)
 .ARM.attributes
                0x000009e6       0x29 c:/actel/libero_v9.1/softconsole/sourcery-g++/bin/../lib/gcc/arm-none-eabi/4.4.1/../../../../arm-none-eabi/lib/thumb2\libc.a(lib_a-putchar.o)
 .ARM.attributes
                0x00000a0f       0x29 c:/actel/libero_v9.1/softconsole/sourcery-g++/bin/../lib/gcc/arm-none-eabi/4.4.1/../../../../arm-none-eabi/lib/thumb2\libc.a(lib_a-puts.o)
 .ARM.attributes
                0x00000a38       0x29 c:/actel/libero_v9.1/softconsole/sourcery-g++/bin/../lib/gcc/arm-none-eabi/4.4.1/../../../../arm-none-eabi/lib/thumb2\libc.a(lib_a-sbrkr.o)
 .ARM.attributes
                0x00000a61       0x29 c:/actel/libero_v9.1/softconsole/sourcery-g++/bin/../lib/gcc/arm-none-eabi/4.4.1/../../../../arm-none-eabi/lib/thumb2\libc.a(lib_a-sprintf.o)
 .ARM.attributes
                0x00000a8a       0x29 c:/actel/libero_v9.1/softconsole/sourcery-g++/bin/../lib/gcc/arm-none-eabi/4.4.1/../../../../arm-none-eabi/lib/thumb2\libc.a(lib_a-sscanf.o)
 .ARM.attributes
                0x00000ab3       0x29 c:/actel/libero_v9.1/softconsole/sourcery-g++/bin/../lib/gcc/arm-none-eabi/4.4.1/../../../../arm-none-eabi/lib/thumb2\libc.a(lib_a-strcat.o)
 .ARM.attributes
                0x00000adc       0x29 c:/actel/libero_v9.1/softconsole/sourcery-g++/bin/../lib/gcc/arm-none-eabi/4.4.1/../../../../arm-none-eabi/lib/thumb2\libc.a(lib_a-strchr.o)
 .ARM.attributes
                0x00000b05       0x29 c:/actel/libero_v9.1/softconsole/sourcery-g++/bin/../lib/gcc/arm-none-eabi/4.4.1/../../../../arm-none-eabi/lib/thumb2\libc.a(lib_a-strcmp.o)
 .ARM.attributes
                0x00000b2e       0x29 c:/actel/libero_v9.1/softconsole/sourcery-g++/bin/../lib/gcc/arm-none-eabi/4.4.1/../../../../arm-none-eabi/lib/thumb2\libc.a(lib_a-strcpy.o)
 .ARM.attributes
                0x00000b57       0x29 c:/actel/libero_v9.1/softconsole/sourcery-g++/bin/../lib/gcc/arm-none-eabi/4.4.1/../../../../arm-none-eabi/lib/thumb2\libc.a(lib_a-strlen.o)
 .ARM.attributes
                0x00000b80       0x29 c:/actel/libero_v9.1/softconsole/sourcery-g++/bin/../lib/gcc/arm-none-eabi/4.4.1/../../../../arm-none-eabi/lib/thumb2\libc.a(lib_a-strncmp.o)
 .ARM.attributes
                0x00000ba9       0x29 c:/actel/libero_v9.1/softconsole/sourcery-g++/bin/../lib/gcc/arm-none-eabi/4.4.1/../../../../arm-none-eabi/lib/thumb2\libc.a(lib_a-strncpy.o)
 .ARM.attributes
                0x00000bd2       0x29 c:/actel/libero_v9.1/softconsole/sourcery-g++/bin/../lib/gcc/arm-none-eabi/4.4.1/../../../../arm-none-eabi/lib/thumb2\libc.a(lib_a-svfprintf.o)
 .ARM.attributes
                0x00000bfb       0x29 c:/actel/libero_v9.1/softconsole/sourcery-g++/bin/../lib/gcc/arm-none-eabi/4.4.1/../../../../arm-none-eabi/lib/thumb2\libc.a(lib_a-svfscanf.o)
 .ARM.attributes
                0x00000c24       0x29 c:/actel/libero_v9.1/softconsole/sourcery-g++/bin/../lib/gcc/arm-none-eabi/4.4.1/../../../../arm-none-eabi/lib/thumb2\libc.a(lib_a-ungetc.o)
 .ARM.attributes
                0x00000c4d       0x29 c:/actel/libero_v9.1/softconsole/sourcery-g++/bin/../lib/gcc/arm-none-eabi/4.4.1/../../../../arm-none-eabi/lib/thumb2\libc.a(lib_a-vfprintf.o)
 .ARM.attributes
                0x00000c76       0x29 c:/actel/libero_v9.1/softconsole/sourcery-g++/bin/../lib/gcc/arm-none-eabi/4.4.1/../../../../arm-none-eabi/lib/thumb2\libc.a(lib_a-wsetup.o)
 .ARM.attributes
                0x00000c9f       0x29 c:/actel/libero_v9.1/softconsole/sourcery-g++/bin/../lib/gcc/arm-none-eabi/4.4.1/../../../../arm-none-eabi/lib/thumb2\libc.a(lib_a-ctype_.o)
 .ARM.attributes
                0x00000cc8       0x29 c:/actel/libero_v9.1/softconsole/sourcery-g++/bin/../lib/gcc/arm-none-eabi/4.4.1/../../../../arm-none-eabi/lib/thumb2\libc.a(lib_a-dtoa.o)
 .ARM.attributes
                0x00000cf1       0x29 c:/actel/libero_v9.1/softconsole/sourcery-g++/bin/../lib/gcc/arm-none-eabi/4.4.1/../../../../arm-none-eabi/lib/thumb2\libc.a(lib_a-fflush.o)
 .ARM.attributes
                0x00000d1a       0x29 c:/actel/libero_v9.1/softconsole/sourcery-g++/bin/../lib/gcc/arm-none-eabi/4.4.1/../../../../arm-none-eabi/lib/thumb2\libc.a(lib_a-findfp.o)
 .ARM.attributes
                0x00000d43       0x29 c:/actel/libero_v9.1/softconsole/sourcery-g++/bin/../lib/gcc/arm-none-eabi/4.4.1/../../../../arm-none-eabi/lib/thumb2\libc.a(lib_a-freer.o)
 .ARM.attributes
                0x00000d6c       0x29 c:/actel/libero_v9.1/softconsole/sourcery-g++/bin/../lib/gcc/arm-none-eabi/4.4.1/../../../../arm-none-eabi/lib/thumb2\libc.a(lib_a-fvwrite.o)
 .ARM.attributes
                0x00000d95       0x29 c:/actel/libero_v9.1/softconsole/sourcery-g++/bin/../lib/gcc/arm-none-eabi/4.4.1/../../../../arm-none-eabi/lib/thumb2\libc.a(lib_a-fwalk.o)
 .ARM.attributes
                0x00000dbe       0x29 c:/actel/libero_v9.1/softconsole/sourcery-g++/bin/../lib/gcc/arm-none-eabi/4.4.1/../../../../arm-none-eabi/lib/thumb2\libc.a(lib_a-iswspace.o)
 .ARM.attributes
                0x00000de7       0x29 c:/actel/libero_v9.1/softconsole/sourcery-g++/bin/../lib/gcc/arm-none-eabi/4.4.1/../../../../arm-none-eabi/lib/thumb2\libc.a(lib_a-locale.o)
 .ARM.attributes
                0x00000e10       0x29 c:/actel/libero_v9.1/softconsole/sourcery-g++/bin/../lib/gcc/arm-none-eabi/4.4.1/../../../../arm-none-eabi/lib/thumb2\libc.a(lib_a-makebuf.o)
 .ARM.attributes
                0x00000e39       0x29 c:/actel/libero_v9.1/softconsole/sourcery-g++/bin/../lib/gcc/arm-none-eabi/4.4.1/../../../../arm-none-eabi/lib/thumb2\libc.a(lib_a-mbrtowc.o)
 .ARM.attributes
                0x00000e62       0x29 c:/actel/libero_v9.1/softconsole/sourcery-g++/bin/../lib/gcc/arm-none-eabi/4.4.1/../../../../arm-none-eabi/lib/thumb2\libc.a(lib_a-mbtowc_r.o)
 .ARM.attributes
                0x00000e8b       0x29 c:/actel/libero_v9.1/softconsole/sourcery-g++/bin/../lib/gcc/arm-none-eabi/4.4.1/../../../../arm-none-eabi/lib/thumb2\libc.a(lib_a-memchr.o)
 .ARM.attributes
                0x00000eb4       0x29 c:/actel/libero_v9.1/softconsole/sourcery-g++/bin/../lib/gcc/arm-none-eabi/4.4.1/../../../../arm-none-eabi/lib/thumb2\libc.a(lib_a-memmove.o)
 .ARM.attributes
                0x00000edd       0x29 c:/actel/libero_v9.1/softconsole/sourcery-g++/bin/../lib/gcc/arm-none-eabi/4.4.1/../../../../arm-none-eabi/lib/thumb2\libc.a(lib_a-mprec.o)
 .ARM.attributes
                0x00000f06       0x29 c:/actel/libero_v9.1/softconsole/sourcery-g++/bin/../lib/gcc/arm-none-eabi/4.4.1/../../../../arm-none-eabi/lib/thumb2\libc.a(lib_a-putc.o)
 .ARM.attributes
                0x00000f2f       0x29 c:/actel/libero_v9.1/softconsole/sourcery-g++/bin/../lib/gcc/arm-none-eabi/4.4.1/../../../../arm-none-eabi/lib/thumb2\libc.a(lib_a-reallocr.o)
 .ARM.attributes
                0x00000f58       0x29 c:/actel/libero_v9.1/softconsole/sourcery-g++/bin/../lib/gcc/arm-none-eabi/4.4.1/../../../../arm-none-eabi/lib/thumb2\libc.a(lib_a-reent.o)
 .ARM.attributes
                0x00000f81       0x29 c:/actel/libero_v9.1/softconsole/sourcery-g++/bin/../lib/gcc/arm-none-eabi/4.4.1/../../../../arm-none-eabi/lib/thumb2\libc.a(lib_a-s_isinfd.o)
 .ARM.attributes
                0x00000faa       0x29 c:/actel/libero_v9.1/softconsole/sourcery-g++/bin/../lib/gcc/arm-none-eabi/4.4.1/../../../../arm-none-eabi/lib/thumb2\libc.a(lib_a-s_isnand.o)
 .ARM.attributes
                0x00000fd3       0x29 c:/actel/libero_v9.1/softconsole/sourcery-g++/bin/../lib/gcc/arm-none-eabi/4.4.1/../../../../arm-none-eabi/lib/thumb2\libc.a(lib_a-sccl.o)
 .ARM.attributes
                0x00000ffc       0x29 c:/actel/libero_v9.1/softconsole/sourcery-g++/bin/../lib/gcc/arm-none-eabi/4.4.1/../../../../arm-none-eabi/lib/thumb2\libc.a(lib_a-sf_nan.o)
 .ARM.attributes
                0x00001025       0x29 c:/actel/libero_v9.1/softconsole/sourcery-g++/bin/../lib/gcc/arm-none-eabi/4.4.1/../../../../arm-none-eabi/lib/thumb2\libc.a(lib_a-stdio.o)
 .ARM.attributes
                0x0000104e       0x29 c:/actel/libero_v9.1/softconsole/sourcery-g++/bin/../lib/gcc/arm-none-eabi/4.4.1/../../../../arm-none-eabi/lib/thumb2\libc.a(lib_a-strtod.o)
 .ARM.attributes
                0x00001077       0x29 c:/actel/libero_v9.1/softconsole/sourcery-g++/bin/../lib/gcc/arm-none-eabi/4.4.1/../../../../arm-none-eabi/lib/thumb2\libc.a(lib_a-strtol.o)
 .ARM.attributes
                0x000010a0       0x29 c:/actel/libero_v9.1/softconsole/sourcery-g++/bin/../lib/gcc/arm-none-eabi/4.4.1/../../../../arm-none-eabi/lib/thumb2\libc.a(lib_a-strtoll_r.o)
 .ARM.attributes
                0x000010c9       0x29 c:/actel/libero_v9.1/softconsole/sourcery-g++/bin/../lib/gcc/arm-none-eabi/4.4.1/../../../../arm-none-eabi/lib/thumb2\libc.a(lib_a-strtoul.o)
 .ARM.attributes
                0x000010f2       0x29 c:/actel/libero_v9.1/softconsole/sourcery-g++/bin/../lib/gcc/arm-none-eabi/4.4.1/../../../../arm-none-eabi/lib/thumb2\libc.a(lib_a-strtoull_r.o)
 .ARM.attributes
                0x0000111b       0x29 c:/actel/libero_v9.1/softconsole/sourcery-g++/bin/../lib/gcc/arm-none-eabi/4.4.1/../../../../arm-none-eabi/lib/thumb2\libc.a(lib_a-wbuf.o)
 .ARM.attributes
                0x00001144       0x29 c:/actel/libero_v9.1/softconsole/sourcery-g++/bin/../lib/gcc/arm-none-eabi/4.4.1/../../../../arm-none-eabi/lib/thumb2\libc.a(lib_a-callocr.o)
 .ARM.attributes
                0x0000116d       0x29 c:/actel/libero_v9.1/softconsole/sourcery-g++/bin/../lib/gcc/arm-none-eabi/4.4.1/../../../../arm-none-eabi/lib/thumb2\libc.a(lib_a-closer.o)
 .ARM.attributes
                0x00001196       0x29 c:/actel/libero_v9.1/softconsole/sourcery-g++/bin/../lib/gcc/arm-none-eabi/4.4.1/../../../../arm-none-eabi/lib/thumb2\libc.a(lib_a-fclose.o)
 .ARM.attributes
                0x000011bf       0x29 c:/actel/libero_v9.1/softconsole/sourcery-g++/bin/../lib/gcc/arm-none-eabi/4.4.1/../../../../arm-none-eabi/lib/thumb2\libc.a(lib_a-fstatr.o)
 .ARM.attributes
                0x000011e8       0x29 c:/actel/libero_v9.1/softconsole/sourcery-g++/bin/../lib/gcc/arm-none-eabi/4.4.1/../../../../arm-none-eabi/lib/thumb2\libc.a(lib_a-gdtoa-gethex.o)
 .ARM.attributes
                0x00001211       0x29 c:/actel/libero_v9.1/softconsole/sourcery-g++/bin/../lib/gcc/arm-none-eabi/4.4.1/../../../../arm-none-eabi/lib/thumb2\libc.a(lib_a-gdtoa-hexnan.o)
 .ARM.attributes
                0x0000123a       0x29 c:/actel/libero_v9.1/softconsole/sourcery-g++/bin/../lib/gcc/arm-none-eabi/4.4.1/../../../../arm-none-eabi/lib/thumb2\libc.a(lib_a-isattyr.o)
 .ARM.attributes
                0x00001263       0x29 c:/actel/libero_v9.1/softconsole/sourcery-g++/bin/../lib/gcc/arm-none-eabi/4.4.1/../../../../arm-none-eabi/lib/thumb2\libc.a(lib_a-lseekr.o)
 .ARM.attributes
                0x0000128c       0x29 c:/actel/libero_v9.1/softconsole/sourcery-g++/bin/../lib/gcc/arm-none-eabi/4.4.1/../../../../arm-none-eabi/lib/thumb2\libc.a(lib_a-readr.o)
 .ARM.attributes
                0x000012b5       0x1b c:/actel/libero_v9.1/softconsole/sourcery-g++/bin/../lib/gcc/arm-none-eabi/4.4.1/thumb2\libgcc.a(_udivsi3.o)
 .ARM.attributes
                0x000012d0       0x1b c:/actel/libero_v9.1/softconsole/sourcery-g++/bin/../lib/gcc/arm-none-eabi/4.4.1/thumb2\libgcc.a(_dvmd_tls.o)
 .ARM.attributes
                0x000012eb       0x1b c:/actel/libero_v9.1/softconsole/sourcery-g++/bin/../lib/gcc/arm-none-eabi/4.4.1/thumb2\libgcc.a(_arm_addsubdf3.o)
 .ARM.attributes
                0x00001306       0x1b c:/actel/libero_v9.1/softconsole/sourcery-g++/bin/../lib/gcc/arm-none-eabi/4.4.1/thumb2\libgcc.a(_arm_muldivdf3.o)
 .ARM.attributes
                0x00001321       0x1b c:/actel/libero_v9.1/softconsole/sourcery-g++/bin/../lib/gcc/arm-none-eabi/4.4.1/thumb2\libgcc.a(_arm_cmpdf2.o)
 .ARM.attributes
                0x0000133c       0x1b c:/actel/libero_v9.1/softconsole/sourcery-g++/bin/../lib/gcc/arm-none-eabi/4.4.1/thumb2\libgcc.a(_arm_fixdfsi.o)
 .ARM.attributes
                0x00001357       0x1b c:/actel/libero_v9.1/softconsole/sourcery-g++/bin/../lib/gcc/arm-none-eabi/4.4.1/thumb2\libgcc.a(_arm_fixunsdfsi.o)
 .ARM.attributes
                0x00001372       0x1b c:/actel/libero_v9.1/softconsole/sourcery-g++/bin/../lib/gcc/arm-none-eabi/4.4.1/thumb2\libgcc.a(_arm_truncdfsf2.o)
 .ARM.attributes
                0x0000138d       0x1b c:/actel/libero_v9.1/softconsole/sourcery-g++/bin/../lib/gcc/arm-none-eabi/4.4.1/thumb2\libgcc.a(_arm_cmpsf2.o)
 .ARM.attributes
                0x000013a8       0x1b c:/actel/libero_v9.1/softconsole/sourcery-g++/bin/../lib/gcc/arm-none-eabi/4.4.1/thumb2\libgcc.a(_aeabi_uldivmod.o)
 .ARM.attributes
                0x000013c3       0x29 c:/actel/libero_v9.1/softconsole/sourcery-g++/bin/../lib/gcc/arm-none-eabi/4.4.1/thumb2\libgcc.a(bpabi.o)
 .ARM.attributes
                0x000013ec       0x29 c:/actel/libero_v9.1/softconsole/sourcery-g++/bin/../lib/gcc/arm-none-eabi/4.4.1/thumb2\libgcc.a(_divdi3.o)
 .ARM.attributes
                0x00001415       0x29 c:/actel/libero_v9.1/softconsole/sourcery-g++/bin/../lib/gcc/arm-none-eabi/4.4.1/thumb2\libgcc.a(_udivdi3.o)
 .ARM.attributes
                0x0000143e       0x29 c:/actel/libero_v9.1/softconsole/sourcery-g++/bin/../lib/gcc/arm-none-eabi/4.4.1/thumb2/crtend.o
 .ARM.attributes
                0x00001467       0x19 c:/actel/libero_v9.1/softconsole/sourcery-g++/bin/../lib/gcc/arm-none-eabi/4.4.1/thumb2/crtn.o

/DISCARD/
 *(.note.GNU-stack)
OUTPUT(Webserver_MSS_CM3_0_app elf32-littlearm)

.debug_ranges   0x00000000      0xfc0
 .debug_ranges  0x00000000       0x70 ./main.o
 .debug_ranges  0x00000070       0x98 ./webclient/webclient.o
 .debug_ranges  0x00000108       0x70 ./uip/psock.o
 .debug_ranges  0x00000178       0x60 ./uip/uip-fw.o
 .debug_ranges  0x000001d8       0x40 ./uip/uip-neighbor.o
 .debug_ranges  0x00000218       0x18 ./uip/uip-split.o
 .debug_ranges  0x00000230       0x98 ./uip/uip.o
 .debug_ranges  0x000002c8       0x38 ./uip/uip_arp.o
 .debug_ranges  0x00000300       0x18 ./uip/uiplib.o
 .debug_ranges  0x00000318       0x58 ./resolv/resolv.o
 .debug_ranges  0x00000370       0xa8 ./mac/tcpip.o
 .debug_ranges  0x00000418       0x40 ./jsmn/jsmn.o
 .debug_ranges  0x00000458       0x50 ./application_tasks/controller_task.o
 .debug_ranges  0x000004a8       0x80 ./application_tasks/http_task.o
 .debug_ranges  0x00000528       0x30 ./application_tasks/lcd_task.o
 .debug_ranges  0x00000558       0x20 ./application_tasks/nunchuck_task.o
 .debug_ranges  0x00000578       0x38 ./FreeRTOS/list.o
 .debug_ranges  0x000005b0       0xb0 ./FreeRTOS/queue.o
 .debug_ranges  0x00000660      0x148 ./FreeRTOS/tasks.o
 .debug_ranges  0x000007a8       0x80 ./FreeRTOS/timers.o
 .debug_ranges  0x00000828       0x20 ./FreeRTOS/portable/MemMang/heap_3.o
 .debug_ranges  0x00000848       0x68 ./FreeRTOS/portable/GCC/ARM_CM3/port.o
 .debug_ranges  0x000008b0       0x40 ./BSP/spi_flash_driver/spi_flash.o
 .debug_ranges  0x000008f0       0xa8 ./BSP/i2c_driver/i2c.o
 .debug_ranges  0x00000998       0x48 ./BSP/emc_driver/nor.o
 .debug_ranges  0x000009e0       0xa0 C:/Users/kylebs/Desktop/FreeRTOS-lwIP-takeDeux/FreeRTOS-lwIP/Webserver_uIPRTOS_SC_DF/EVAL_KIT/SF_Webserver_Demo/SoftConsole/Webserver_MSS_CM3_0/Webserver_MSS_CM3_0_hw_platform/Debug/CMSIS/startup_gcc/newlib_stubs.o
 .debug_ranges  0x00000a80       0x18 C:\Users\kylebs\Desktop\FreeRTOS-lwIP-takeDeux\FreeRTOS-lwIP\Webserver_uIPRTOS_SC_DF\EVAL_KIT\SF_Webserver_Demo\SoftConsole\Webserver_MSS_CM3_0\Webserver_MSS_CM3_0_hw_platform\Debug\libWebserver_MSS_CM3_0_hw_platform.a(plotter_platform.o)
 .debug_ranges  0x00000a98       0xd0 C:\Users\kylebs\Desktop\FreeRTOS-lwIP-takeDeux\FreeRTOS-lwIP\Webserver_uIPRTOS_SC_DF\EVAL_KIT\SF_Webserver_Demo\SoftConsole\Webserver_MSS_CM3_0\Webserver_MSS_CM3_0_hw_platform\Debug\libWebserver_MSS_CM3_0_hw_platform.a(mss_uart.o)
 .debug_ranges  0x00000b68       0xd0 C:\Users\kylebs\Desktop\FreeRTOS-lwIP-takeDeux\FreeRTOS-lwIP\Webserver_uIPRTOS_SC_DF\EVAL_KIT\SF_Webserver_Demo\SoftConsole\Webserver_MSS_CM3_0\Webserver_MSS_CM3_0_hw_platform\Debug\libWebserver_MSS_CM3_0_hw_platform.a(mss_spi.o)
 .debug_ranges  0x00000c38       0x70 C:\Users\kylebs\Desktop\FreeRTOS-lwIP-takeDeux\FreeRTOS-lwIP\Webserver_uIPRTOS_SC_DF\EVAL_KIT\SF_Webserver_Demo\SoftConsole\Webserver_MSS_CM3_0\Webserver_MSS_CM3_0_hw_platform\Debug\libWebserver_MSS_CM3_0_hw_platform.a(mss_pdma.o)
 .debug_ranges  0x00000ca8       0x58 C:\Users\kylebs\Desktop\FreeRTOS-lwIP-takeDeux\FreeRTOS-lwIP\Webserver_uIPRTOS_SC_DF\EVAL_KIT\SF_Webserver_Demo\SoftConsole\Webserver_MSS_CM3_0\Webserver_MSS_CM3_0_hw_platform\Debug\libWebserver_MSS_CM3_0_hw_platform.a(mss_gpio.o)
 .debug_ranges  0x00000d00       0xf8 C:\Users\kylebs\Desktop\FreeRTOS-lwIP-takeDeux\FreeRTOS-lwIP\Webserver_uIPRTOS_SC_DF\EVAL_KIT\SF_Webserver_Demo\SoftConsole\Webserver_MSS_CM3_0\Webserver_MSS_CM3_0_hw_platform\Debug\libWebserver_MSS_CM3_0_hw_platform.a(mss_ethernet_mac.o)
 .debug_ranges  0x00000df8       0x68 C:\Users\kylebs\Desktop\FreeRTOS-lwIP-takeDeux\FreeRTOS-lwIP\Webserver_uIPRTOS_SC_DF\EVAL_KIT\SF_Webserver_Demo\SoftConsole\Webserver_MSS_CM3_0\Webserver_MSS_CM3_0_hw_platform\Debug\libWebserver_MSS_CM3_0_hw_platform.a(phy.o)
 .debug_ranges  0x00000e60       0x40 C:\Users\kylebs\Desktop\FreeRTOS-lwIP-takeDeux\FreeRTOS-lwIP\Webserver_uIPRTOS_SC_DF\EVAL_KIT\SF_Webserver_Demo\SoftConsole\Webserver_MSS_CM3_0\Webserver_MSS_CM3_0_hw_platform\Debug\libWebserver_MSS_CM3_0_hw_platform.a(core_uart_apb.o)
 .debug_ranges  0x00000ea0       0xc0 C:\Users\kylebs\Desktop\FreeRTOS-lwIP-takeDeux\FreeRTOS-lwIP\Webserver_uIPRTOS_SC_DF\EVAL_KIT\SF_Webserver_Demo\SoftConsole\Webserver_MSS_CM3_0\Webserver_MSS_CM3_0_hw_platform\Debug\libWebserver_MSS_CM3_0_hw_platform.a(core_cm3.o)
 .debug_ranges  0x00000f60       0x28 C:\Users\kylebs\Desktop\FreeRTOS-lwIP-takeDeux\FreeRTOS-lwIP\Webserver_uIPRTOS_SC_DF\EVAL_KIT\SF_Webserver_Demo\SoftConsole\Webserver_MSS_CM3_0\Webserver_MSS_CM3_0_hw_platform\Debug\libWebserver_MSS_CM3_0_hw_platform.a(system_a2fxxxm3.o)
 .debug_ranges  0x00000f88       0x18 C:\Users\kylebs\Desktop\FreeRTOS-lwIP-takeDeux\FreeRTOS-lwIP\Webserver_uIPRTOS_SC_DF\EVAL_KIT\SF_Webserver_Demo\SoftConsole\Webserver_MSS_CM3_0\Webserver_MSS_CM3_0_hw_platform\Debug\libWebserver_MSS_CM3_0_hw_platform.a(hal_assert.o)
 .debug_ranges  0x00000fa0       0x20 C:\Users\kylebs\Desktop\FreeRTOS-lwIP-takeDeux\FreeRTOS-lwIP\Webserver_uIPRTOS_SC_DF\EVAL_KIT\SF_Webserver_Demo\SoftConsole\Webserver_MSS_CM3_0\Webserver_MSS_CM3_0_hw_platform\Debug\libWebserver_MSS_CM3_0_hw_platform.a(crc32.o)
